(dp0
S'notes'
p1
S''
p2
s.(dp0
S'commands'
p1
(lp2
V['Glitch Module', 'Ext Trigger Offset']
p3
as.(dp0
S'data'
p1
(dp2
S'success'
p3
I00
sS'settings'
p4
(lp5
I9
asS'normal'
p6
I00
sS'output'
p7
S'\x00hello\nPassword:'
p8
sS'date'
p9
cdatetime
datetime
p10
(S'\x07\xe1\x08\x1c\x0e&\x07\x0f)\xe7'
p11
tp12
Rp13
sS'input'
p14
S''
p15
ss.(dp0
S'data'
p1
(dp2
S'success'
p3
I00
sS'settings'
p4
(lp5
I4294967248
asS'normal'
p6
I01
sS'output'
p7
S'Denied\nPassword:'
p8
sS'date'
p9
cdatetime
datetime
p10
(S'\x07\xe1\x08\x1c\x0e&\x08\x08\x98\x88'
p11
tp12
Rp13
sS'input'
p14
S''
p15
ss.(dp0
S'data'
p1
(dp2
S'success'
p3
I00
sS'settings'
p4
(lp5
I4294967249
asS'normal'
p6
I01
sS'output'
p7
S'Denied\nPassword:'
p8
sS'date'
p9
cdatetime
datetime
p10
(S'\x07\xe1\x08\x1c\x0e&\r\x01\x9f\xb3'
p11
tp12
Rp13
sS'input'
p14
S''
p15
ss.(dp0
S'data'
p1
(dp2
S'success'
p3
I00
sS'settings'
p4
(lp5
I4294967250
asS'normal'
p6
I01
sS'output'
p7
S'Denied\nPassword:'
p8
sS'date'
p9
cdatetime
datetime
p10
(S'\x07\xe1\x08\x1c\x0e&\x10\x03K\xfb'
p11
tp12
Rp13
sS'input'
p14
S''
p15
ss.(dp0
S'data'
p1
(dp2
S'success'
p3
I00
sS'settings'
p4
(lp5
I4294967251
asS'normal'
p6
I01
sS'output'
p7
S'Denied\nPassword:'
p8
sS'date'
p9
cdatetime
datetime
p10
(S'\x07\xe1\x08\x1c\x0e&\x11\x07|y'
p11
tp12
Rp13
sS'input'
p14
S''
p15
ss.(dp0
S'data'
p1
(dp2
S'success'
p3
I00
sS'settings'
p4
(lp5
I4294967252
asS'normal'
p6
I01
sS'output'
p7
S'Denied\nPassword:'
p8
sS'date'
p9
cdatetime
datetime
p10
(S'\x07\xe1\x08\x1c\x0e&\x13\t\xcd\xfc'
p11
tp12
Rp13
sS'input'
p14
S''
p15
ss.(dp0
S'data'
p1
(dp2
S'success'
p3
I00
sS'settings'
p4
(lp5
I4294967253
asS'normal'
p6
I01
sS'output'
p7
S'Denied\nPassword:'
p8
sS'date'
p9
cdatetime
datetime
p10
(S'\x07\xe1\x08\x1c\x0e&\x15\x06\xe8\x8d'
p11
tp12
Rp13
sS'input'
p14
S''
p15
ss.(dp0
S'data'
p1
(dp2
S'success'
p3
I00
sS'settings'
p4
(lp5
I4294967254
asS'normal'
p6
I01
sS'output'
p7
S'Denied\nPassword:'
p8
sS'date'
p9
cdatetime
datetime
p10
(S'\x07\xe1\x08\x1c\x0e&\x1a\x0e\xd1\x80'
p11
tp12
Rp13
sS'input'
p14
S''
p15
ss.(dp0
S'data'
p1
(dp2
S'success'
p3
I00
sS'settings'
p4
(lp5
I4294967255
asS'normal'
p6
I01
sS'output'
p7
S'Denied\nPassword:'
p8
sS'date'
p9
cdatetime
datetime
p10
(S'\x07\xe1\x08\x1c\x0e&\x1e\x0b^\x07'
p11
tp12
Rp13
sS'input'
p14
S''
p15
ss.(dp0
S'data'
p1
(dp2
S'success'
p3
I00
sS'settings'
p4
(lp5
I4294967256
asS'normal'
p6
I01
sS'output'
p7
S'Denied\nPassword:'
p8
sS'date'
p9
cdatetime
datetime
p10
(S'\x07\xe1\x08\x1c\x0e& \x02\xe8\xd1'
p11
tp12
Rp13
sS'input'
p14
S''
p15
ss.(dp0
S'data'
p1
(dp2
S'success'
p3
I00
sS'settings'
p4
(lp5
I4294967257
asS'normal'
p6
I01
sS'output'
p7
S'Denied\nPassword:'
p8
sS'date'
p9
cdatetime
datetime
p10
(S'\x07\xe1\x08\x1c\x0e&&\x07D\xfd'
p11
tp12
Rp13
sS'input'
p14
S''
p15
ss.(dp0
S'data'
p1
(dp2
S'success'
p3
I00
sS'settings'
p4
(lp5
I4294967258
asS'normal'
p6
I01
sS'output'
p7
S'Denied\nPassword:'
p8
sS'date'
p9
cdatetime
datetime
p10
(S"\x07\xe1\x08\x1c\x0e&'\x08\xbd\t"
p11
tp12
Rp13
sS'input'
p14
S''
p15
ss.(dp0
S'data'
p1
(dp2
S'success'
p3
I00
sS'settings'
p4
(lp5
I4294967259
asS'normal'
p6
I01
sS'output'
p7
S'Denied\nPassword:'
p8
sS'date'
p9
cdatetime
datetime
p10
(S'\x07\xe1\x08\x1c\x0e&)\x065\xd3'
p11
tp12
Rp13
sS'input'
p14
S''
p15
ss.(dp0
S'data'
p1
(dp2
S'success'
p3
I00
sS'settings'
p4
(lp5
I4294967260
asS'normal'
p6
I01
sS'output'
p7
S'Denied\nPassword:'
p8
sS'date'
p9
cdatetime
datetime
p10
(S'\x07\xe1\x08\x1c\x0e&4\nr\xbc'
p11
tp12
Rp13
sS'input'
p14
S''
p15
ss.(dp0
S'data'
p1
(dp2
S'success'
p3
I00
sS'settings'
p4
(lp5
I4294967261
asS'normal'
p6
I01
sS'output'
p7
S'Denied\nPassword:'
p8
sS'date'
p9
cdatetime
datetime
p10
(S'\x07\xe1\x08\x1c\x0e&6\x04=\x88'
p11
tp12
Rp13
sS'input'
p14
S''
p15
ss.(dp0
S'data'
p1
(dp2
S'success'
p3
I00
sS'settings'
p4
(lp5
I4294967262
asS'normal'
p6
I01
sS'output'
p7
S'Denied\nPassword:'
p8
sS'date'
p9
cdatetime
datetime
p10
(S'\x07\xe1\x08\x1c\x0e&8\x05\xda\x87'
p11
tp12
Rp13
sS'input'
p14
S''
p15
ss.