(dp0
S'notes'
p1
S''
p2
s.(dp0
S'commands'
p1
(lp2
V['Glitch Module', 'Glitch Width (as % of period)']
p3
as.(dp0
S'data'
p1
(dp2
S'success'
p3
I00
sS'settings'
p4
(lp5
I-40
asS'normal'
p6
I01
sS'output'
p7
S'\x00\x00\x16\x8b\x0bhello\nA'
p8
sS'date'
p9
cdatetime
datetime
p10
(S'\x07\xe1\x08\x1d\x10\x04*\x02&\xe7'
p11
tp12
Rp13
sS'input'
p14
S''
p15
ss.(dp0
S'data'
p1
(dp2
S'success'
p3
I00
sS'settings'
p4
(lp5
I-39
asS'normal'
p6
I01
sS'output'
p7
S'hell\x00hello\nA'
p8
sS'date'
p9
cdatetime
datetime
p10
(S'\x07\xe1\x08\x1d\x10\x04*\x08\xe5h'
p11
tp12
Rp13
sS'input'
p14
S''
p15
ss.(dp0
S'data'
p1
(dp2
S'success'
p3
I00
sS'settings'
p4
(lp5
I-38
asS'normal'
p6
I01
sS'output'
p7
S'hell\x00hello\nA'
p8
sS'date'
p9
cdatetime
datetime
p10
(S'\x07\xe1\x08\x1d\x10\x04+\x00\xd8#'
p11
tp12
Rp13
sS'input'
p14
S''
p15
ss.(dp0
S'data'
p1
(dp2
S'success'
p3
I00
sS'settings'
p4
(lp5
I-37
asS'normal'
p6
I01
sS'output'
p7
S'hell\x00hello\nA'
p8
sS'date'
p9
cdatetime
datetime
p10
(S'\x07\xe1\x08\x1d\x10\x04+\x07\x9cT'
p11
tp12
Rp13
sS'input'
p14
S''
p15
ss.(dp0
S'data'
p1
(dp2
S'success'
p3
I00
sS'settings'
p4
(lp5
I-36
asS'normal'
p6
I01
sS'output'
p7
S'hell\x00hello\nA'
p8
sS'date'
p9
cdatetime
datetime
p10
(S'\x07\xe1\x08\x1d\x10\x04+\x0ez\xf8'
p11
tp12
Rp13
sS'input'
p14
S''
p15
ss.(dp0
S'data'
p1
(dp2
S'success'
p3
I00
sS'settings'
p4
(lp5
I-35
asS'normal'
p6
I01
sS'output'
p7
S'hell\x00hello\nA'
p8
sS'date'
p9
cdatetime
datetime
p10
(S'\x07\xe1\x08\x1d\x10\x04,\x06\x1al'
p11
tp12
Rp13
sS'input'
p14
S''
p15
ss.(dp0
S'data'
p1
(dp2
S'success'
p3
I00
sS'settings'
p4
(lp5
I-34
asS'normal'
p6
I01
sS'output'
p7
S'hell\x00hello\nA'
p8
sS'date'
p9
cdatetime
datetime
p10
(S'\x07\xe1\x08\x1d\x10\x04,\x0c\xe7$'
p11
tp12
Rp13
sS'input'
p14
S''
p15
ss.(dp0
S'data'
p1
(dp2
S'success'
p3
I00
sS'settings'
p4
(lp5
I-33
asS'normal'
p6
I01
sS'output'
p7
S'hell\x00hello\nA'
p8
sS'date'
p9
cdatetime
datetime
p10
(S'\x07\xe1\x08\x1d\x10\x04-\x04\x88}'
p11
tp12
Rp13
sS'input'
p14
S''
p15
ss.(dp0
S'data'
p1
(dp2
S'success'
p3
I00
sS'settings'
p4
(lp5
I-32
asS'normal'
p6
I01
sS'output'
p7
S'hell\x00hello\nA'
p8
sS'date'
p9
cdatetime
datetime
p10
(S'\x07\xe1\x08\x1d\x10\x04-\x0bH\xc4'
p11
tp12
Rp13
sS'input'
p14
S''
p15
ss.(dp0
S'data'
p1
(dp2
S'success'
p3
I00
sS'settings'
p4
(lp5
I-31
asS'normal'
p6
I01
sS'output'
p7
S'hell\x00hello\nA'
p8
sS'date'
p9
cdatetime
datetime
p10
(S'\x07\xe1\x08\x1d\x10\x04.\x02\x9e('
p11
tp12
Rp13
sS'input'
p14
S''
p15
ss.(dp0
S'data'
p1
(dp2
S'success'
p3
I00
sS'settings'
p4
(lp5
I-30
asS'normal'
p6
I01
sS'output'
p7
S'hell\x00hello\nA'
p8
sS'date'
p9
cdatetime
datetime
p10
(S'\x07\xe1\x08\x1d\x10\x04.\t\x8e\xfd'
p11
tp12
Rp13
sS'input'
p14
S''
p15
ss.(dp0
S'data'
p1
(dp2
S'success'
p3
I00
sS'settings'
p4
(lp5
I-29
asS'normal'
p6
I01
sS'output'
p7
S'hell\x00hello\nA'
p8
sS'date'
p9
cdatetime
datetime
p10
(S'\x07\xe1\x08\x1d\x10\x04/\x016\x1d'
p11
tp12
Rp13
sS'input'
p14
S''
p15
ss.(dp0
S'data'
p1
(dp2
S'success'
p3
I00
sS'settings'
p4
(lp5
I-28
asS'normal'
p6
I01
sS'output'
p7
S'hell\x00hello\nA'
p8
sS'date'
p9
cdatetime
datetime
p10
(S'\x07\xe1\x08\x1d\x10\x04/\x08\x159'
p11
tp12
Rp13
sS'input'
p14
S''
p15
ss.(dp0
S'data'
p1
(dp2
S'success'
p3
I00
sS'settings'
p4
(lp5
I-27
asS'normal'
p6
I01
sS'output'
p7
S'hell\x00hello\nA'
p8
sS'date'
p9
cdatetime
datetime
p10
(S'\x07\xe1\x08\x1d\x10\x04/\x0f\x08\x85'
p11
tp12
Rp13
sS'input'
p14
S''
p15
ss.(dp0
S'data'
p1
(dp2
S'success'
p3
I00
sS'settings'
p4
(lp5
I-26
asS'normal'
p6
I01
sS'output'
p7
S'hell\x00hello\nA'
p8
sS'date'
p9
cdatetime
datetime
p10
(S'\x07\xe1\x08\x1d\x10\x040\x06\xbb\xf2'
p11
tp12
Rp13
sS'input'
p14
S''
p15
ss.(dp0
S'data'
p1
(dp2
S'success'
p3
I00
sS'settings'
p4
(lp5
I-25
asS'normal'
p6
I01
sS'output'
p7
S'hell\x00hello\nA'
p8
sS'date'
p9
cdatetime
datetime
p10
(S'\x07\xe1\x08\x1d\x10\x040\rR\x0b'
p11
tp12
Rp13
sS'input'
p14
S''
p15
ss.(dp0
S'data'
p1
(dp2
S'success'
p3
I00
sS'settings'
p4
(lp5
I-24
asS'normal'
p6
I01
sS'output'
p7
S'hell\x00hello\nA'
p8
sS'date'
p9
cdatetime
datetime
p10
(S'\x07\xe1\x08\x1d\x10\x041\x05\x045'
p11
tp12
Rp13
sS'input'
p14
S''
p15
ss.(dp0
S'data'
p1
(dp2
S'success'
p3
I00
sS'settings'
p4
(lp5
I-23
asS'normal'
p6
I01
sS'output'
p7
S'hell\x00hello\nA'
p8
sS'date'
p9
cdatetime
datetime
p10
(S'\x07\xe1\x08\x1d\x10\x041\x0b\xfa|'
p11
tp12
Rp13
sS'input'
p14
S''
p15
ss.(dp0
S'data'
p1
(dp2
S'success'
p3
I00
sS'settings'
p4
(lp5
I-22
asS'normal'
p6
I01
sS'output'
p7
S'hell\x00hello\nA'
p8
sS'date'
p9
cdatetime
datetime
p10
(S'\x07\xe1\x08\x1d\x10\x042\x03\xeco'
p11
tp12
Rp13
sS'input'
p14
S''
p15
ss.(dp0
S'data'
p1
(dp2
S'success'
p3
I00
sS'settings'
p4
(lp5
I-21
asS'normal'
p6
I01
sS'output'
p7
S'hell\x00hello\nA'
p8
sS'date'
p9
cdatetime
datetime
p10
(S'\x07\xe1\x08\x1d\x10\x042\x0b\xce\xaf'
p11
tp12
Rp13
sS'input'
p14
S''
p15
ss.(dp0
S'data'
p1
(dp2
S'success'
p3
I00
sS'settings'
p4
(lp5
I-20
asS'normal'
p6
I01
sS'output'
p7
S'"\x01 \x00hell\x00hello\nA'
p8
sS'date'
p9
cdatetime
datetime
p10
(S'\x07\xe1\x08\x1d\x10\x043\x042g'
p11
tp12
Rp13
sS'input'
p14
S''
p15
ss.