(dp0
S'notes'
p1
S''
p2
s.(dp0
S'commands'
p1
(lp2
V['Glitch Module', 'Ext Trigger Offset']
p3
as.(dp0
S'data'
p1
(dp2
S'success'
p3
I00
sS'settings'
p4
(lp5
I4294967263
asS'normal'
p6
I01
sS'output'
p7
S'\xf8\x01\x00\x16\x8b\xebK(\xff\x00hello\nA'
p8
sS'date'
p9
cdatetime
datetime
p10
(S'\x07\xe1\x08\x1c\x0e+\x0c\x00\xb8\x90'
p11
tp12
Rp13
sS'input'
p14
S''
p15
ss.(dp0
S'data'
p1
(dp2
S'success'
p3
I00
sS'settings'
p4
(lp5
I4294967264
asS'normal'
p6
I01
sS'output'
p7
S'hello\nA\x04 hello\nA'
p8
sS'date'
p9
cdatetime
datetime
p10
(S'\x07\xe1\x08\x1c\x0e+\x0c\t/\xfc'
p11
tp12
Rp13
sS'input'
p14
S''
p15
ss.(dp0
S'data'
p1
(dp2
S'success'
p3
I00
sS'settings'
p4
(lp5
I4294967265
asS'normal'
p6
I01
sS'output'
p7
S'hello\nA\x00\x00hello\nA'
p8
sS'date'
p9
cdatetime
datetime
p10
(S'\x07\xe1\x08\x1c\x0e+\x0e\x06w\x95'
p11
tp12
Rp13
sS'input'
p14
S''
p15
ss.(dp0
S'data'
p1
(dp2
S'success'
p3
I00
sS'settings'
p4
(lp5
I4294967266
asS'normal'
p6
I01
sS'output'
p7
S'hello\nA\x00\x00hello\nA'
p8
sS'date'
p9
cdatetime
datetime
p10
(S'\x07\xe1\x08\x1c\x0e+\x0f\n\xd7o'
p11
tp12
Rp13
sS'input'
p14
S''
p15
ss.(dp0
S'data'
p1
(dp2
S'success'
p3
I00
sS'settings'
p4
(lp5
I4294967267
asS'normal'
p6
I01
sS'output'
p7
S'hello\nA\x00hello\nA'
p8
sS'date'
p9
cdatetime
datetime
p10
(S'\x07\xe1\x08\x1c\x0e+\x11\x04A\x03'
p11
tp12
Rp13
sS'input'
p14
S''
p15
ss.(dp0
S'data'
p1
(dp2
S'success'
p3
I00
sS'settings'
p4
(lp5
I4294967268
asS'normal'
p6
I01
sS'output'
p7
S'hello\nA\x00hello\nA'
p8
sS'date'
p9
cdatetime
datetime
p10
(S'\x07\xe1\x08\x1c\x0e+\x12\x04\xb7\x06'
p11
tp12
Rp13
sS'input'
p14
S''
p15
ss.(dp0
S'data'
p1
(dp2
S'success'
p3
I00
sS'settings'
p4
(lp5
I4294967269
asS'normal'
p6
I01
sS'output'
p7
S'hello\nA@\x00hello\nA'
p8
sS'date'
p9
cdatetime
datetime
p10
(S'\x07\xe1\x08\x1c\x0e+\x13\x04T\x11'
p11
tp12
Rp13
sS'input'
p14
S''
p15
ss.(dp0
S'data'
p1
(dp2
S'success'
p3
I00
sS'settings'
p4
(lp5
I4294967270
asS'normal'
p6
I01
sS'output'
p7
S'hello\nA\x00hello\nA'
p8
sS'date'
p9
cdatetime
datetime
p10
(S'\x07\xe1\x08\x1c\x0e+\x15\x0b\x19\xaf'
p11
tp12
Rp13
sS'input'
p14
S''
p15
ss.(dp0
S'data'
p1
(dp2
S'success'
p3
I00
sS'settings'
p4
(lp5
I4294967271
asS'normal'
p6
I01
sS'output'
p7
S'hello\nA\x00\x00hello\nA'
p8
sS'date'
p9
cdatetime
datetime
p10
(S'\x07\xe1\x08\x1c\x0e+\x17\x04u\xcd'
p11
tp12
Rp13
sS'input'
p14
S''
p15
ss.(dp0
S'data'
p1
(dp2
S'success'
p3
I00
sS'settings'
p4
(lp5
I4294967272
asS'normal'
p6
I01
sS'output'
p7
S'hello\nA\x00 hello\nA'
p8
sS'date'
p9
cdatetime
datetime
p10
(S'\x07\xe1\x08\x1c\x0e+\x19\t\x8eA'
p11
tp12
Rp13
sS'input'
p14
S''
p15
ss.