(dp0
S'notes'
p1
S''
p2
s.(dp0
S'commands'
p1
(lp2
V['Glitch Module', 'Ext Trigger Offset']
p3
as.(dp0
S'data'
p1
(dp2
S'success'
p3
I00
sS'settings'
p4
(lp5
I9
asS'normal'
p6
I00
sS'output'
p7
S''
p8
sS'date'
p9
cdatetime
datetime
p10
(S'\x07\xe1\x08\x1c\x0e%(\nW\x14'
p11
tp12
Rp13
sS'input'
p14
g8
ss.(dp0
S'data'
p1
(dp2
S'success'
p3
I00
sS'settings'
p4
(lp5
I9
asS'normal'
p6
I00
sS'output'
p7
S''
p8
sS'date'
p9
cdatetime
datetime
p10
(S'\x07\xe1\x08\x1c\x0e%+\x05A\x15'
p11
tp12
Rp13
sS'input'
p14
g8
ss.(dp0
S'data'
p1
(dp2
S'success'
p3
I00
sS'settings'
p4
(lp5
I9
asS'normal'
p6
I00
sS'output'
p7
S''
p8
sS'date'
p9
cdatetime
datetime
p10
(S'\x07\xe1\x08\x1c\x0e%.\x00\x0f`'
p11
tp12
Rp13
sS'input'
p14
g8
ss.(dp0
S'data'
p1
(dp2
S'success'
p3
I00
sS'settings'
p4
(lp5
I9
asS'normal'
p6
I00
sS'output'
p7
S''
p8
sS'date'
p9
cdatetime
datetime
p10
(S'\x07\xe1\x08\x1c\x0e%0\n\x13\x9e'
p11
tp12
Rp13
sS'input'
p14
g8
ss.