(dp0
S'notes'
p1
S''
p2
s.(dp0
S'commands'
p1
(lp2
V['Glitch Module', 'Glitch Offset (as % of period)']
p3
as.(dp0
S'data'
p1
(dp2
S'success'
p3
I00
sS'settings'
p4
(lp5
F1.0
asS'normal'
p6
I00
sS'output'
p7
S'he'
p8
sS'date'
p9
cdatetime
datetime
p10
(S'\x07\xe1\x08\x18\n",\x08\x8a\xa8'
p11
tp12
Rp13
sS'input'
p14
S''
p15
ss.(dp0
S'data'
p1
(dp2
S'success'
p3
I00
sS'settings'
p4
(lp5
F-29.5
asS'normal'
p6
I00
sS'output'
p7
S'\xf8\xf8\xd1\x95\x93\xff\xcc\xcc'
p8
sS'date'
p9
cdatetime
datetime
p10
(S'\x07\xe1\x08\x18\n".\x07\xd8\xa5'
p11
tp12
Rp13
sS'input'
p14
S''
p15
ss.(dp0
S'data'
p1
(dp2
S'success'
p3
I00
sS'settings'
p4
(lp5
F-29.0
asS'normal'
p6
I00
sS'output'
p7
S'\xcc\xcc'
p8
sS'date'
p9
cdatetime
datetime
p10
(S'\x07\xe1\x08\x18\n".\r\xd4\xac'
p11
tp12
Rp13
sS'input'
p14
S''
p15
ss.(dp0
S'data'
p1
(dp2
S'success'
p3
I00
sS'settings'
p4
(lp5
F-28.5
asS'normal'
p6
I00
sS'output'
p7
S'*\xcc'
p8
sS'date'
p9
cdatetime
datetime
p10
(S'\x07\xe1\x08\x18\n"/\x04?V'
p11
tp12
Rp13
sS'input'
p14
S''
p15
ss.(dp0
S'data'
p1
(dp2
S'success'
p3
I00
sS'settings'
p4
(lp5
F-28.0
asS'normal'
p6
I00
sS'output'
p7
S'\xcc\xcc'
p8
sS'date'
p9
cdatetime
datetime
p10
(S'\x07\xe1\x08\x18\n"/\n?E'
p11
tp12
Rp13
sS'input'
p14
S''
p15
ss.(dp0
S'data'
p1
(dp2
S'success'
p3
I00
sS'settings'
p4
(lp5
F-27.5
asS'normal'
p6
I00
sS'output'
p7
S'\x80\x80'
p8
sS'date'
p9
cdatetime
datetime
p10
(S'\x07\xe1\x08\x18\n"0\x01\x06\x8d'
p11
tp12
Rp13
sS'input'
p14
S''
p15
ss.(dp0
S'data'
p1
(dp2
S'success'
p3
I00
sS'settings'
p4
(lp5
F-27.0
asS'normal'
p6
I00
sS'output'
p7
S'\xd6\x1c\x8b\xccL\xe6'
p8
sS'date'
p9
cdatetime
datetime
p10
(S'\x07\xe1\x08\x18\n"0\x06\x8b('
p11
tp12
Rp13
sS'input'
p14
S''
p15
ss.(dp0
S'data'
p1
(dp2
S'success'
p3
I00
sS'settings'
p4
(lp5
F-26.5
asS'normal'
p6
I00
sS'output'
p7
S'.\x96\xff\xcc\xcc'
p8
sS'date'
p9
cdatetime
datetime
p10
(S'\x07\xe1\x08\x18\n"0\x0cLP'
p11
tp12
Rp13
sS'input'
p14
S''
p15
ss.(dp0
S'data'
p1
(dp2
S'success'
p3
I00
sS'settings'
p4
(lp5
F-26.0
asS'normal'
p6
I00
sS'output'
p7
S'\x06h\xee\xcc\xcc'
p8
sS'date'
p9
cdatetime
datetime
p10
(S'\x07\xe1\x08\x18\n"1\x02\xec\x03'
p11
tp12
Rp13
sS'input'
p14
S''
p15
ss.(dp0
S'data'
p1
(dp2
S'success'
p3
I00
sS'settings'
p4
(lp5
F-25.5
asS'normal'
p6
I00
sS'output'
p7
S'\xcc'
p8
sS'date'
p9
cdatetime
datetime
p10
(S'\x07\xe1\x08\x18\n"1\t\x00\x9f'
p11
tp12
Rp13
sS'input'
p14
S''
p15
ss.(dp0
S'data'
p1
(dp2
S'success'
p3
I00
sS'settings'
p4
(lp5
F-25.0
asS'normal'
p6
I00
sS'output'
p7
S'Z\xff\xcc\xcc'
p8
sS'date'
p9
cdatetime
datetime
p10
(S'\x07\xe1\x08\x18\n"1\x0f\x02\xa5'
p11
tp12
Rp13
sS'input'
p14
S''
p15
ss.(dp0
S'data'
p1
(dp2
S'success'
p3
I00
sS'settings'
p4
(lp5
F-24.5
asS'normal'
p6
I00
sS'output'
p7
S'\x8cZ\xe6'
p8
sS'date'
p9
cdatetime
datetime
p10
(S'\x07\xe1\x08\x18\n"2\x05\xda\x04'
p11
tp12
Rp13
sS'input'
p14
S''
p15
ss.(dp0
S'data'
p1
(dp2
S'success'
p3
I00
sS'settings'
p4
(lp5
F-24.0
asS'normal'
p6
I00
sS'output'
p7
S'\xcc\xcc'
p8
sS'date'
p9
cdatetime
datetime
p10
(S'\x07\xe1\x08\x18\n"2\x0b\xd8P'
p11
tp12
Rp13
sS'input'
p14
S''
p15
ss.(dp0
S'data'
p1
(dp2
S'success'
p3
I00
sS'settings'
p4
(lp5
F-23.5
asS'normal'
p6
I00
sS'output'
p7
S'\xd6\x14\xff\xcc\xcc'
p8
sS'date'
p9
cdatetime
datetime
p10
(S'\x07\xe1\x08\x18\n"3\x02\xa7\xd2'
p11
tp12
Rp13
sS'input'
p14
S''
p15
ss.(dp0
S'data'
p1
(dp2
S'success'
p3
I00
sS'settings'
p4
(lp5
F-23.0
asS'normal'
p6
I00
sS'output'
p7
S'\\\xe6\xcc'
p8
sS'date'
p9
cdatetime
datetime
p10
(S'\x07\xe1\x08\x18\n"3\x08\xb50'
p11
tp12
Rp13
sS'input'
p14
S''
p15
ss.(dp0
S'data'
p1
(dp2
S'success'
p3
I00
sS'settings'
p4
(lp5
F-22.5
asS'normal'
p6
I00
sS'output'
p7
S'\xcc\xcc'
p8
sS'date'
p9
cdatetime
datetime
p10
(S'\x07\xe1\x08\x18\n"3\x0e\xcf\xf6'
p11
tp12
Rp13
sS'input'
p14
S''
p15
ss.(dp0
S'data'
p1
(dp2
S'success'
p3
I00
sS'settings'
p4
(lp5
F-22.0
asS'normal'
p6
I00
sS'output'
p7
S'\xcc\x0c\xe6'
p8
sS'date'
p9
cdatetime
datetime
p10
(S'\x07\xe1\x08\x18\n"4\x05y0'
p11
tp12
Rp13
sS'input'
p14
S''
p15
ss.(dp0
S'data'
p1
(dp2
S'success'
p3
I00
sS'settings'
p4
(lp5
F-21.5
asS'normal'
p6
I00
sS'output'
p7
S'.\x94\xff\x80\xcc'
p8
sS'date'
p9
cdatetime
datetime
p10
(S'\x07\xe1\x08\x18\n"4\x0bv\xe2'
p11
tp12
Rp13
sS'input'
p14
S''
p15
ss.(dp0
S'data'
p1
(dp2
S'success'
p3
I00
sS'settings'
p4
(lp5
F-21.0
asS'normal'
p6
I00
sS'output'
p7
S'\x80\xcc'
p8
sS'date'
p9
cdatetime
datetime
p10
(S'\x07\xe1\x08\x18\n"5\x022\xff'
p11
tp12
Rp13
sS'input'
p14
S''
p15
ss.(dp0
S'data'
p1
(dp2
S'success'
p3
I00
sS'settings'
p4
(lp5
F-20.5
asS'normal'
p6
I00
sS'output'
p7
S'\xccL\xe6'
p8
sS'date'
p9
cdatetime
datetime
p10
(S'\x07\xe1\x08\x18\n"5\x08@\x0b'
p11
tp12
Rp13
sS'input'
p14
S''
p15
ss.(dp0
S'data'
p1
(dp2
S'success'
p3
I00
sS'settings'
p4
(lp5
F-20.0
asS'normal'
p6
I00
sS'output'
p7
S'\xcc\x80'
p8
sS'date'
p9
cdatetime
datetime
p10
(S'\x07\xe1\x08\x18\n"5\x0e:F'
p11
tp12
Rp13
sS'input'
p14
S''
p15
ss.(dp0
S'data'
p1
(dp2
S'success'
p3
I00
sS'settings'
p4
(lp5
F-19.5
asS'normal'
p6
I00
sS'output'
p7
S'\\\xe6\xcc'
p8
sS'date'
p9
cdatetime
datetime
p10
(S'\x07\xe1\x08\x18\n"6\x04\xe3\x9e'
p11
tp12
Rp13
sS'input'
p14
S''
p15
ss.(dp0
S'data'
p1
(dp2
S'success'
p3
I00
sS'settings'
p4
(lp5
F-19.0
asS'normal'
p6
I00
sS'output'
p7
S'\x8cZ\xe6'
p8
sS'date'
p9
cdatetime
datetime
p10
(S'\x07\xe1\x08\x18\n"6\ny\xdb'
p11
tp12
Rp13
sS'input'
p14
S''
p15
ss.(dp0
S'data'
p1
(dp2
S'success'
p3
I00
sS'settings'
p4
(lp5
F-18.5
asS'normal'
p6
I00
sS'output'
p7
S'\x8c\xcc'
p8
sS'date'
p9
cdatetime
datetime
p10
(S'\x07\xe1\x08\x18\n"7\x01=\xb9'
p11
tp12
Rp13
sS'input'
p14
S''
p15
ss.(dp0
S'data'
p1
(dp2
S'success'
p3
I00
sS'settings'
p4
(lp5
F-18.0
asS'normal'
p6
I00
sS'output'
p7
S'\xf1\x84'
p8
sS'date'
p9
cdatetime
datetime
p10
(S'\x07\xe1\x08\x18\n"7\x071\xe2'
p11
tp12
Rp13
sS'input'
p14
S''
p15
ss.(dp0
S'data'
p1
(dp2
S'success'
p3
I00
sS'settings'
p4
(lp5
F-17.5
asS'normal'
p6
I00
sS'output'
p7
S'\x06X\xee\xcc\\\xe6'
p8
sS'date'
p9
cdatetime
datetime
p10
(S'\x07\xe1\x08\x18\n"7\rI\xa0'
p11
tp12
Rp13
sS'input'
p14
S''
p15
ss.(dp0
S'data'
p1
(dp2
S'success'
p3
I00
sS'settings'
p4
(lp5
F-17.0
asS'normal'
p6
I00
sS'output'
p7
S'\xccL\xe6'
p8
sS'date'
p9
cdatetime
datetime
p10
(S'\x07\xe1\x08\x18\n"8\x03\xf8?'
p11
tp12
Rp13
sS'input'
p14
S''
p15
ss.(dp0
S'data'
p1
(dp2
S'success'
p3
I00
sS'settings'
p4
(lp5
F-16.5
asS'normal'
p6
I00
sS'output'
p7
S'\xcc\xcc'
p8
sS'date'
p9
cdatetime
datetime
p10
(S'\x07\xe1\x08\x18\n"8\n\x01\xa5'
p11
tp12
Rp13
sS'input'
p14
S''
p15
ss.(dp0
S'data'
p1
(dp2
S'success'
p3
I00
sS'settings'
p4
(lp5
F-16.0
asS'normal'
p6
I00
sS'output'
p7
S'\x06q\xee\\\xe6\xcc'
p8
sS'date'
p9
cdatetime
datetime
p10
(S'\x07\xe1\x08\x18\n"9\x00\xd5\xfe'
p11
tp12
Rp13
sS'input'
p14
S''
p15
ss.(dp0
S'data'
p1
(dp2
S'success'
p3
I00
sS'settings'
p4
(lp5
F-15.5
asS'normal'
p6
I00
sS'output'
p7
S'Fc\xee\xcc\xcc'
p8
sS'date'
p9
cdatetime
datetime
p10
(S'\x07\xe1\x08\x18\n"9\x06\xb2W'
p11
tp12
Rp13
sS'input'
p14
S''
p15
ss.(dp0
S'data'
p1
(dp2
S'success'
p3
I00
sS'settings'
p4
(lp5
F-15.0
asS'normal'
p6
I00
sS'output'
p7
S'\x80\xcc'
p8
sS'date'
p9
cdatetime
datetime
p10
(S'\x07\xe1\x08\x18\n"9\x0c\xb3\xfe'
p11
tp12
Rp13
sS'input'
p14
S''
p15
ss.(dp0
S'data'
p1
(dp2
S'success'
p3
I00
sS'settings'
p4
(lp5
F-14.5
asS'normal'
p6
I00
sS'output'
p7
S'\xcc\xcc'
p8
sS'date'
p9
cdatetime
datetime
p10
(S'\x07\xe1\x08\x18\n":\x03r\xa9'
p11
tp12
Rp13
sS'input'
p14
S''
p15
ss.(dp0
S'data'
p1
(dp2
S'success'
p3
I00
sS'settings'
p4
(lp5
F-14.0
asS'normal'
p6
I00
sS'output'
p7
S'.\x13\xdbZ\xe6\xcc'
p8
sS'date'
p9
cdatetime
datetime
p10
(S'\x07\xe1\x08\x18\n":\tpq'
p11
tp12
Rp13
sS'input'
p14
S''
p15
ss.(dp0
S'data'
p1
(dp2
S'success'
p3
I00
sS'settings'
p4
(lp5
F-13.5
asS'normal'
p6
I00
sS'output'
p7
S'\xd6\x12\x83\x80Z\xe6'
p8
sS'date'
p9
cdatetime
datetime
p10
(S'\x07\xe1\x08\x18\n";\x00.\xf7'
p11
tp12
Rp13
sS'input'
p14
S''
p15
ss.(dp0
S'data'
p1
(dp2
S'success'
p3
I00
sS'settings'
p4
(lp5
F-13.0
asS'normal'
p6
I00
sS'output'
p7
S'.\xffX\xe6\x8c'
p8
sS'date'
p9
cdatetime
datetime
p10
(S'\x07\xe1\x08\x18\n";\x066\xc2'
p11
tp12
Rp13
sS'input'
p14
S''
p15
ss.(dp0
S'data'
p1
(dp2
S'success'
p3
I00
sS'settings'
p4
(lp5
F-12.5
asS'normal'
p6
I00
sS'output'
p7
S'\xfd\x00\xc3\xfe\xcc1\xcc'
p8
sS'date'
p9
cdatetime
datetime
p10
(S'\x07\xe1\x08\x18\n";\x0cR+'
p11
tp12
Rp13
sS'input'
p14
S''
p15
ss.(dp0
S'data'
p1
(dp2
S'success'
p3
I00
sS'settings'
p4
(lp5
F-12.0
asS'normal'
p6
I00
sS'output'
p7
S'\x06d\xee\xea'
p8
sS'date'
p9
cdatetime
datetime
p10
(S'\x07\xe1\x08\x18\n#\x00\x03\x0e\xb5'
p11
tp12
Rp13
sS'input'
p14
S''
p15
ss.(dp0
S'data'
p1
(dp2
S'success'
p3
I00
sS'settings'
p4
(lp5
F-11.5
asS'normal'
p6
I00
sS'output'
p7
S'\xba\xfd\xfbO\x01\x00\x00\x00'
p8
sS'date'
p9
cdatetime
datetime
p10
(S'\x07\xe1\x08\x18\n#\x00\t41'
p11
tp12
Rp13
sS'input'
p14
S''
p15
ss.(dp0
S'data'
p1
(dp2
S'success'
p3
I00
sS'settings'
p4
(lp5
F-11.5
asS'normal'
p6
I00
sS'output'
p7
S''
p8
sS'date'
p9
cdatetime
datetime
p10
(S'\x07\xe1\x08\x18\n#\x03\x010\xa7'
p11
tp12
Rp13
sS'input'
p14
g8
ss.(dp0
S'data'
p1
(dp2
S'success'
p3
I00
sS'settings'
p4
(lp5
F-11.5
asS'normal'
p6
I00
sS'output'
p7
S''
p8
sS'date'
p9
cdatetime
datetime
p10
(S'\x07\xe1\x08\x18\n#\x05\x08\xf93'
p11
tp12
Rp13
sS'input'
p14
g8
ss.(dp0
S'data'
p1
(dp2
S'success'
p3
I00
sS'settings'
p4
(lp5
F-11.5
asS'normal'
p6
I00
sS'output'
p7
S''
p8
sS'date'
p9
cdatetime
datetime
p10
(S'\x07\xe1\x08\x18\n#\x08\x01\x83\x1f'
p11
tp12
Rp13
sS'input'
p14
g8
ss.(dp0
S'data'
p1
(dp2
S'success'
p3
I00
sS'settings'
p4
(lp5
F-11.5
asS'normal'
p6
I00
sS'output'
p7
S''
p8
sS'date'
p9
cdatetime
datetime
p10
(S'\x07\xe1\x08\x18\n#\n\tE\xf4'
p11
tp12
Rp13
sS'input'
p14
g8
ss.(dp0
S'data'
p1
(dp2
S'success'
p3
I00
sS'settings'
p4
(lp5
F-11.5
asS'normal'
p6
I00
sS'output'
p7
S''
p8
sS'date'
p9
cdatetime
datetime
p10
(S'\x07\xe1\x08\x18\n#\r\x01U1'
p11
tp12
Rp13
sS'input'
p14
g8
ss.(dp0
S'data'
p1
(dp2
S'success'
p3
I00
sS'settings'
p4
(lp5
F-11.5
asS'normal'
p6
I00
sS'output'
p7
S''
p8
sS'date'
p9
cdatetime
datetime
p10
(S'\x07\xe1\x08\x18\n#\x0f\t#\x19'
p11
tp12
Rp13
sS'input'
p14
g8
ss.(dp0
S'data'
p1
(dp2
S'success'
p3
I00
sS'settings'
p4
(lp5
F-11.5
asS'normal'
p6
I00
sS'output'
p7
S''
p8
sS'date'
p9
cdatetime
datetime
p10
(S'\x07\xe1\x08\x18\n#\x12\x01<\xc0'
p11
tp12
Rp13
sS'input'
p14
g8
ss.(dp0
S'data'
p1
(dp2
S'success'
p3
I00
sS'settings'
p4
(lp5
F-11.5
asS'normal'
p6
I00
sS'output'
p7
S''
p8
sS'date'
p9
cdatetime
datetime
p10
(S'\x07\xe1\x08\x18\n#\x14\x08\x82~'
p11
tp12
Rp13
sS'input'
p14
g8
ss.(dp0
S'data'
p1
(dp2
S'success'
p3
I00
sS'settings'
p4
(lp5
F-11.5
asS'normal'
p6
I00
sS'output'
p7
S''
p8
sS'date'
p9
cdatetime
datetime
p10
(S'\x07\xe1\x08\x18\n#\x17\x00)\xd0'
p11
tp12
Rp13
sS'input'
p14
g8
ss.(dp0
S'data'
p1
(dp2
S'success'
p3
I00
sS'settings'
p4
(lp5
F-11.5
asS'normal'
p6
I00
sS'output'
p7
S''
p8
sS'date'
p9
cdatetime
datetime
p10
(S'\x07\xe1\x08\x18\n#\x19\x07\xa7\xca'
p11
tp12
Rp13
sS'input'
p14
g8
ss.(dp0
S'data'
p1
(dp2
S'success'
p3
I00
sS'settings'
p4
(lp5
F-11.5
asS'normal'
p6
I00
sS'output'
p7
S''
p8
sS'date'
p9
cdatetime
datetime
p10
(S'\x07\xe1\x08\x18\n#\x1c\x00]\xb6'
p11
tp12
Rp13
sS'input'
p14
g8
ss.(dp0
S'data'
p1
(dp2
S'success'
p3
I00
sS'settings'
p4
(lp5
F-11.5
asS'normal'
p6
I00
sS'output'
p7
S''
p8
sS'date'
p9
cdatetime
datetime
p10
(S'\x07\xe1\x08\x18\n#\x1e\x07\xa4\xef'
p11
tp12
Rp13
sS'input'
p14
g8
ss.(dp0
S'data'
p1
(dp2
S'success'
p3
I00
sS'settings'
p4
(lp5
F-11.5
asS'normal'
p6
I00
sS'output'
p7
S''
p8
sS'date'
p9
cdatetime
datetime
p10
(S'\x07\xe1\x08\x18\n#!\x00\x11J'
p11
tp12
Rp13
sS'input'
p14
g8
ss.(dp0
S'data'
p1
(dp2
S'success'
p3
I00
sS'settings'
p4
(lp5
F-11.5
asS'normal'
p6
I00
sS'output'
p7
S''
p8
sS'date'
p9
cdatetime
datetime
p10
(S'\x07\xe1\x08\x18\n##\x07dM'
p11
tp12
Rp13
sS'input'
p14
g8
ss.(dp0
S'data'
p1
(dp2
S'success'
p3
I00
sS'settings'
p4
(lp5
F-11.5
asS'normal'
p6
I00
sS'output'
p7
S''
p8
sS'date'
p9
cdatetime
datetime
p10
(S'\x07\xe1\x08\x18\n#%\x0e\xcc\xcd'
p11
tp12
Rp13
sS'input'
p14
g8
ss.(dp0
S'data'
p1
(dp2
S'success'
p3
I00
sS'settings'
p4
(lp5
F-11.5
asS'normal'
p6
I00
sS'output'
p7
S''
p8
sS'date'
p9
cdatetime
datetime
p10
(S'\x07\xe1\x08\x18\n#(\x06\xf0\xaa'
p11
tp12
Rp13
sS'input'
p14
g8
ss.(dp0
S'data'
p1
(dp2
S'success'
p3
I00
sS'settings'
p4
(lp5
F-11.5
asS'normal'
p6
I00
sS'output'
p7
S''
p8
sS'date'
p9
cdatetime
datetime
p10
(S'\x07\xe1\x08\x18\n#*\x0eF`'
p11
tp12
Rp13
sS'input'
p14
g8
ss.(dp0
S'data'
p1
(dp2
S'success'
p3
I00
sS'settings'
p4
(lp5
F-11.5
asS'normal'
p6
I00
sS'output'
p7
S''
p8
sS'date'
p9
cdatetime
datetime
p10
(S'\x07\xe1\x08\x18\n#-\x06j\xe0'
p11
tp12
Rp13
sS'input'
p14
g8
ss.(dp0
S'data'
p1
(dp2
S'success'
p3
I00
sS'settings'
p4
(lp5
F-11.5
asS'normal'
p6
I00
sS'output'
p7
S''
p8
sS'date'
p9
cdatetime
datetime
p10
(S'\x07\xe1\x08\x18\n#/\r\xb2_'
p11
tp12
Rp13
sS'input'
p14
g8
ss.(dp0
S'data'
p1
(dp2
S'success'
p3
I00
sS'settings'
p4
(lp5
F-11.5
asS'normal'
p6
I00
sS'output'
p7
S''
p8
sS'date'
p9
cdatetime
datetime
p10
(S'\x07\xe1\x08\x18\n#2\x05\xc6^'
p11
tp12
Rp13
sS'input'
p14
g8
ss.(dp0
S'data'
p1
(dp2
S'success'
p3
I00
sS'settings'
p4
(lp5
F-11.5
asS'normal'
p6
I00
sS'output'
p7
S''
p8
sS'date'
p9
cdatetime
datetime
p10
(S'\x07\xe1\x08\x18\n#4\r8\xf3'
p11
tp12
Rp13
sS'input'
p14
g8
ss.(dp0
S'data'
p1
(dp2
S'success'
p3
I00
sS'settings'
p4
(lp5
F-11.0
asS'normal'
p6
I00
sS'output'
p7
S''
p8
sS'date'
p9
cdatetime
datetime
p10
(S'\x07\xe1\x08\x18\n#5\r\r\x9c'
p11
tp12
Rp13
sS'input'
p14
g8
ss.(dp0
S'data'
p1
(dp2
S'success'
p3
I00
sS'settings'
p4
(lp5
F-11.0
asS'normal'
p6
I00
sS'output'
p7
S''
p8
sS'date'
p9
cdatetime
datetime
p10
(S'\x07\xe1\x08\x18\n#8\x053\xda'
p11
tp12
Rp13
sS'input'
p14
g8
ss.(dp0
S'data'
p1
(dp2
S'success'
p3
I00
sS'settings'
p4
(lp5
F-11.0
asS'normal'
p6
I00
sS'output'
p7
S''
p8
sS'date'
p9
cdatetime
datetime
p10
(S'\x07\xe1\x08\x18\n#:\x0c\x9a\xdb'
p11
tp12
Rp13
sS'input'
p14
g8
ss.(dp0
S'data'
p1
(dp2
S'success'
p3
I00
sS'settings'
p4
(lp5
F-11.0
asS'normal'
p6
I00
sS'output'
p7
S''
p8
sS'date'
p9
cdatetime
datetime
p10
(S'\x07\xe1\x08\x18\n$\x01\x04\xb0N'
p11
tp12
Rp13
sS'input'
p14
g8
ss.(dp0
S'data'
p1
(dp2
S'success'
p3
I00
sS'settings'
p4
(lp5
F-11.0
asS'normal'
p6
I00
sS'output'
p7
S''
p8
sS'date'
p9
cdatetime
datetime
p10
(S'\x07\xe1\x08\x18\n$\x03\x0c\x1a\xa1'
p11
tp12
Rp13
sS'input'
p14
g8
ss.(dp0
S'data'
p1
(dp2
S'success'
p3
I00
sS'settings'
p4
(lp5
F-11.0
asS'normal'
p6
I00
sS'output'
p7
S''
p8
sS'date'
p9
cdatetime
datetime
p10
(S'\x07\xe1\x08\x18\n$\x06\x04)P'
p11
tp12
Rp13
sS'input'
p14
g8
ss.(dp0
S'data'
p1
(dp2
S'success'
p3
I00
sS'settings'
p4
(lp5
F-11.0
asS'normal'
p6
I00
sS'output'
p7
S''
p8
sS'date'
p9
cdatetime
datetime
p10
(S'\x07\xe1\x08\x18\n$\x08\x0b\x95\xff'
p11
tp12
Rp13
sS'input'
p14
g8
ss.(dp0
S'data'
p1
(dp2
S'success'
p3
I00
sS'settings'
p4
(lp5
F-11.0
asS'normal'
p6
I00
sS'output'
p7
S''
p8
sS'date'
p9
cdatetime
datetime
p10
(S'\x07\xe1\x08\x18\n$\x0b\x03\x91\x87'
p11
tp12
Rp13
sS'input'
p14
g8
ss.(dp0
S'data'
p1
(dp2
S'success'
p3
I00
sS'settings'
p4
(lp5
F-11.0
asS'normal'
p6
I00
sS'output'
p7
S''
p8
sS'date'
p9
cdatetime
datetime
p10
(S'\x07\xe1\x08\x18\n$\r\x0b!I'
p11
tp12
Rp13
sS'input'
p14
g8
ss.