(dp0
S'notes'
p1
S''
p2
s.(dp0
S'commands'
p1
(lp2
V['Glitch Module', 'Glitch Offset (as % of period)']
p3
aV['Glitch Module', 'Glitch Width (as % of period)']
p4
as.(dp0
S'data'
p1
(dp2
S'success'
p3
I00
sS'settings'
p4
(lp5
F-16.5
aI4
asS'normal'
p6
I00
sS'output'
p7
S'\x11\x00hello\nA'
p8
sS'date'
p9
cdatetime
datetime
p10
(S'\x07\xe1\x08\x18\x0c,\x0f\x05\xcex'
p11
tp12
Rp13
sS'input'
p14
S''
p15
ss.(dp0
S'data'
p1
(dp2
S'success'
p3
I00
sS'settings'
p4
(lp5
F-16.0
aI4
asS'normal'
p6
I01
sS'output'
p7
S'\x00hello\nA'
p8
sS'date'
p9
cdatetime
datetime
p10
(S'\x07\xe1\x08\x18\x0c,\x0f\x0c<1'
p11
tp12
Rp13
sS'input'
p14
S''
p15
ss.(dp0
S'data'
p1
(dp2
S'success'
p3
I00
sS'settings'
p4
(lp5
F-15.5
aI4
asS'normal'
p6
I00
sS'output'
p7
S'hello\nA'
p8
sS'date'
p9
cdatetime
datetime
p10
(S'\x07\xe1\x08\x18\x0c,\x10\x02\xea\xbd'
p11
tp12
Rp13
sS'input'
p14
S''
p15
ss.(dp0
S'data'
p1
(dp2
S'success'
p3
I00
sS'settings'
p4
(lp5
F-15.0
aI4
asS'normal'
p6
I00
sS'output'
p7
S'hello\nA'
p8
sS'date'
p9
cdatetime
datetime
p10
(S'\x07\xe1\x08\x18\x0c,\x10\x08\xc9\xc6'
p11
tp12
Rp13
sS'input'
p14
S''
p15
ss.(dp0
S'data'
p1
(dp2
S'success'
p3
I00
sS'settings'
p4
(lp5
F-14.5
aI4
asS'normal'
p6
I00
sS'output'
p7
S'hello\nA'
p8
sS'date'
p9
cdatetime
datetime
p10
(S'\x07\xe1\x08\x18\x0c,\x10\x0e\xcfP'
p11
tp12
Rp13
sS'input'
p14
S''
p15
ss.(dp0
S'data'
p1
(dp2
S'success'
p3
I00
sS'settings'
p4
(lp5
F-14.0
aI4
asS'normal'
p6
I00
sS'output'
p7
S'hello\nA'
p8
sS'date'
p9
cdatetime
datetime
p10
(S'\x07\xe1\x08\x18\x0c,\x11\x05\xb8\xe5'
p11
tp12
Rp13
sS'input'
p14
S''
p15
ss.(dp0
S'data'
p1
(dp2
S'success'
p3
I00
sS'settings'
p4
(lp5
F-13.5
aI4
asS'normal'
p6
I00
sS'output'
p7
S'hello\nA'
p8
sS'date'
p9
cdatetime
datetime
p10
(S'\x07\xe1\x08\x18\x0c,\x11\x0b\x98d'
p11
tp12
Rp13
sS'input'
p14
S''
p15
ss.(dp0
S'data'
p1
(dp2
S'success'
p3
I00
sS'settings'
p4
(lp5
F-13.0
aI4
asS'normal'
p6
I00
sS'output'
p7
S'hello\nA'
p8
sS'date'
p9
cdatetime
datetime
p10
(S'\x07\xe1\x08\x18\x0c,\x12\x02^%'
p11
tp12
Rp13
sS'input'
p14
S''
p15
ss.(dp0
S'data'
p1
(dp2
S'success'
p3
I00
sS'settings'
p4
(lp5
F-12.5
aI4
asS'normal'
p6
I00
sS'output'
p7
S'hello\nA'
p8
sS'date'
p9
cdatetime
datetime
p10
(S'\x07\xe1\x08\x18\x0c,\x12\x08G\xb9'
p11
tp12
Rp13
sS'input'
p14
S''
p15
ss.(dp0
S'data'
p1
(dp2
S'success'
p3
I00
sS'settings'
p4
(lp5
F-12.0
aI4
asS'normal'
p6
I00
sS'output'
p7
S'hello\nA'
p8
sS'date'
p9
cdatetime
datetime
p10
(S'\x07\xe1\x08\x18\x0c,\x12\x0e\xc8/'
p11
tp12
Rp13
sS'input'
p14
S''
p15
ss.(dp0
S'data'
p1
(dp2
S'success'
p3
I00
sS'settings'
p4
(lp5
F-11.5
aI4
asS'normal'
p6
I00
sS'output'
p7
S'hello\nA'
p8
sS'date'
p9
cdatetime
datetime
p10
(S'\x07\xe1\x08\x18\x0c,\x13\x05y\xa2'
p11
tp12
Rp13
sS'input'
p14
S''
p15
ss.(dp0
S'data'
p1
(dp2
S'success'
p3
I01
sS'settings'
p4
(lp5
F-11.0
aI4
asS'normal'
p6
I00
sS'output'
p7
S'hello\nA1234'
p8
sS'date'
p9
cdatetime
datetime
p10
(S'\x07\xe1\x08\x18\x0c,\x13\x0bS,'
p11
tp12
Rp13
sS'input'
p14
S''
p15
ss.(dp0
S'data'
p1
(dp2
S'success'
p3
I01
sS'settings'
p4
(lp5
F-10.5
aI4
asS'normal'
p6
I00
sS'output'
p7
S'hello\nA1234'
p8
sS'date'
p9
cdatetime
datetime
p10
(S"\x07\xe1\x08\x18\x0c,\x14\x02'\x0c"
p11
tp12
Rp13
sS'input'
p14
S''
p15
ss.(dp0
S'data'
p1
(dp2
S'success'
p3
I01
sS'settings'
p4
(lp5
F-10.0
aI4
asS'normal'
p6
I00
sS'output'
p7
S'hello\nA1234'
p8
sS'date'
p9
cdatetime
datetime
p10
(S'\x07\xe1\x08\x18\x0c,\x14\x08\x06='
p11
tp12
Rp13
sS'input'
p14
S''
p15
ss.(dp0
S'data'
p1
(dp2
S'success'
p3
I01
sS'settings'
p4
(lp5
F-9.5
aI4
asS'normal'
p6
I00
sS'output'
p7
S'hello\nA1234'
p8
sS'date'
p9
cdatetime
datetime
p10
(S'\x07\xe1\x08\x18\x0c,\x14\r\xd6}'
p11
tp12
Rp13
sS'input'
p14
S''
p15
ss.(dp0
S'data'
p1
(dp2
S'success'
p3
I00
sS'settings'
p4
(lp5
F-9.0
aI4
asS'normal'
p6
I00
sS'output'
p7
S'hello\nA'
p8
sS'date'
p9
cdatetime
datetime
p10
(S'\x07\xe1\x08\x18\x0c,\x15\x04t\x1e'
p11
tp12
Rp13
sS'input'
p14
S''
p15
ss.(dp0
S'data'
p1
(dp2
S'success'
p3
I01
sS'settings'
p4
(lp5
F-8.5
aI4
asS'normal'
p6
I00
sS'output'
p7
S'\x00hello\nA1234'
p8
sS'date'
p9
cdatetime
datetime
p10
(S'\x07\xe1\x08\x18\x0c,\x15\x0b\x87\xc5'
p11
tp12
Rp13
sS'input'
p14
S''
p15
ss.(dp0
S'data'
p1
(dp2
S'success'
p3
I01
sS'settings'
p4
(lp5
F-8.0
aI4
asS'normal'
p6
I00
sS'output'
p7
S' \x00hello\nA1234'
p8
sS'date'
p9
cdatetime
datetime
p10
(S'\x07\xe1\x08\x18\x0c,\x16\x02\xc8\xcc'
p11
tp12
Rp13
sS'input'
p14
S''
p15
ss.(dp0
S'data'
p1
(dp2
S'success'
p3
I01
sS'settings'
p4
(lp5
F-7.5
aI4
asS'normal'
p6
I00
sS'output'
p7
S'hello\nA1234'
p8
sS'date'
p9
cdatetime
datetime
p10
(S'\x07\xe1\x08\x18\x0c,\x16\x08g\x06'
p11
tp12
Rp13
sS'input'
p14
S''
p15
ss.(dp0
S'data'
p1
(dp2
S'success'
p3
I01
sS'settings'
p4
(lp5
F-7.0
aI4
asS'normal'
p6
I00
sS'output'
p7
S'hello\nA1234'
p8
sS'date'
p9
cdatetime
datetime
p10
(S'\x07\xe1\x08\x18\x0c,\x16\x0eF\x02'
p11
tp12
Rp13
sS'input'
p14
S''
p15
ss.(dp0
S'data'
p1
(dp2
S'success'
p3
I00
sS'settings'
p4
(lp5
F-6.5
aI4
asS'normal'
p6
I00
sS'output'
p7
S'hello\nAhello\nA'
p8
sS'date'
p9
cdatetime
datetime
p10
(S'\x07\xe1\x08\x18\x0c,\x17\x04\xe6\xd1'
p11
tp12
Rp13
sS'input'
p14
S''
p15
ss.(dp0
S'data'
p1
(dp2
S'success'
p3
I00
sS'settings'
p4
(lp5
F-6.0
aI4
asS'normal'
p6
I00
sS'output'
p7
S'hello\nAhello\nA'
p8
sS'date'
p9
cdatetime
datetime
p10
(S'\x07\xe1\x08\x18\x0c,\x17\n\xba*'
p11
tp12
Rp13
sS'input'
p14
S''
p15
ss.(dp0
S'data'
p1
(dp2
S'success'
p3
I01
sS'settings'
p4
(lp5
F-5.5
aI4
asS'normal'
p6
I00
sS'output'
p7
S'hello\nA1234'
p8
sS'date'
p9
cdatetime
datetime
p10
(S'\x07\xe1\x08\x18\x0c,\x18\x01\x8b\xad'
p11
tp12
Rp13
sS'input'
p14
S''
p15
ss.(dp0
S'data'
p1
(dp2
S'success'
p3
I00
sS'settings'
p4
(lp5
F-5.0
aI4
asS'normal'
p6
I00
sS'output'
p7
S'hello\nA'
p8
sS'date'
p9
cdatetime
datetime
p10
(S'\x07\xe1\x08\x18\x0c,\x18\x07\xd5\xb9'
p11
tp12
Rp13
sS'input'
p14
S''
p15
ss.(dp0
S'data'
p1
(dp2
S'success'
p3
I00
sS'settings'
p4
(lp5
F-4.5
aI4
asS'normal'
p6
I00
sS'output'
p7
S'hello\nA'
p8
sS'date'
p9
cdatetime
datetime
p10
(S'\x07\xe1\x08\x18\x0c,\x18\x0e\x10\x1e'
p11
tp12
Rp13
sS'input'
p14
S''
p15
ss.(dp0
S'data'
p1
(dp2
S'success'
p3
I00
sS'settings'
p4
(lp5
F-4.0
aI4
asS'normal'
p6
I00
sS'output'
p7
S'hello\nAhello\nA'
p8
sS'date'
p9
cdatetime
datetime
p10
(S'\x07\xe1\x08\x18\x0c,\x19\x04\xb5\x96'
p11
tp12
Rp13
sS'input'
p14
S''
p15
ss.(dp0
S'data'
p1
(dp2
S'success'
p3
I01
sS'settings'
p4
(lp5
F-3.5
aI4
asS'normal'
p6
I00
sS'output'
p7
S'hello\nA1234'
p8
sS'date'
p9
cdatetime
datetime
p10
(S'\x07\xe1\x08\x18\x0c,\x19\n\xc7\xa7'
p11
tp12
Rp13
sS'input'
p14
S''
p15
ss.(dp0
S'data'
p1
(dp2
S'success'
p3
I00
sS'settings'
p4
(lp5
F-3.0
aI4
asS'normal'
p6
I00
sS'output'
p7
S'hello\nA'
p8
sS'date'
p9
cdatetime
datetime
p10
(S'\x07\xe1\x08\x18\x0c,\x1a\x01\x8bI'
p11
tp12
Rp13
sS'input'
p14
S''
p15
ss.(dp0
S'data'
p1
(dp2
S'success'
p3
I00
sS'settings'
p4
(lp5
F-2.5
aI4
asS'normal'
p6
I00
sS'output'
p7
S'hello\nA'
p8
sS'date'
p9
cdatetime
datetime
p10
(S'\x07\xe1\x08\x18\x0c,\x1a\x07\xa1N'
p11
tp12
Rp13
sS'input'
p14
S''
p15
ss.(dp0
S'data'
p1
(dp2
S'success'
p3
I00
sS'settings'
p4
(lp5
F-2.0
aI4
asS'normal'
p6
I00
sS'output'
p7
S'hello\nA'
p8
sS'date'
p9
cdatetime
datetime
p10
(S'\x07\xe1\x08\x18\x0c,\x1a\r\xa9\x91'
p11
tp12
Rp13
sS'input'
p14
S''
p15
ss.(dp0
S'data'
p1
(dp2
S'success'
p3
I00
sS'settings'
p4
(lp5
F-1.5
aI4
asS'normal'
p6
I00
sS'output'
p7
S'hello\nA'
p8
sS'date'
p9
cdatetime
datetime
p10
(S'\x07\xe1\x08\x18\x0c,\x1b\x04c\xdd'
p11
tp12
Rp13
sS'input'
p14
S''
p15
ss.(dp0
S'data'
p1
(dp2
S'success'
p3
I00
sS'settings'
p4
(lp5
F-1.0
aI4
asS'normal'
p6
I00
sS'output'
p7
S'hello\nA'
p8
sS'date'
p9
cdatetime
datetime
p10
(S'\x07\xe1\x08\x18\x0c,\x1b\x0b\xb8z'
p11
tp12
Rp13
sS'input'
p14
S''
p15
ss.(dp0
S'data'
p1
(dp2
S'success'
p3
I00
sS'settings'
p4
(lp5
F-0.5
aI4
asS'normal'
p6
I00
sS'output'
p7
S'hello\nA'
p8
sS'date'
p9
cdatetime
datetime
p10
(S'\x07\xe1\x08\x18\x0c,\x1c\x02m\x1f'
p11
tp12
Rp13
sS'input'
p14
S''
p15
ss.(dp0
S'data'
p1
(dp2
S'success'
p3
I00
sS'settings'
p4
(lp5
F0.0
aI4
asS'normal'
p6
I00
sS'output'
p7
S'hello\nA'
p8
sS'date'
p9
cdatetime
datetime
p10
(S'\x07\xe1\x08\x18\x0c,\x1c\x08\xf9\xc8'
p11
tp12
Rp13
sS'input'
p14
S''
p15
ss.(dp0
S'data'
p1
(dp2
S'success'
p3
I00
sS'settings'
p4
(lp5
F0.5
aI4
asS'normal'
p6
I00
sS'output'
p7
S'hello\nA'
p8
sS'date'
p9
cdatetime
datetime
p10
(S'\x07\xe1\x08\x18\x0c,\x1c\x0f?N'
p11
tp12
Rp13
sS'input'
p14
S''
p15
ss.(dp0
S'data'
p1
(dp2
S'success'
p3
I01
sS'settings'
p4
(lp5
F1.0
aI4
asS'normal'
p6
I00
sS'output'
p7
S'hello\nA1234'
p8
sS'date'
p9
cdatetime
datetime
p10
(S'\x07\xe1\x08\x18\x0c,\x1d\x06\x0bI'
p11
tp12
Rp13
sS'input'
p14
S''
p15
ss.(dp0
S'data'
p1
(dp2
S'success'
p3
I01
sS'settings'
p4
(lp5
F1.5
aI4
asS'normal'
p6
I00
sS'output'
p7
S'hello\nA1234'
p8
sS'date'
p9
cdatetime
datetime
p10
(S'\x07\xe1\x08\x18\x0c,\x1d\x0c":'
p11
tp12
Rp13
sS'input'
p14
S''
p15
ss.(dp0
S'data'
p1
(dp2
S'success'
p3
I01
sS'settings'
p4
(lp5
F2.0
aI4
asS'normal'
p6
I00
sS'output'
p7
S'hello\nA1234'
p8
sS'date'
p9
cdatetime
datetime
p10
(S'\x07\xe1\x08\x18\x0c,\x1e\x03|0'
p11
tp12
Rp13
sS'input'
p14
S''
p15
ss.(dp0
S'data'
p1
(dp2
S'success'
p3
I01
sS'settings'
p4
(lp5
F2.5
aI4
asS'normal'
p6
I00
sS'output'
p7
S'hello\nA1234'
p8
sS'date'
p9
cdatetime
datetime
p10
(S'\x07\xe1\x08\x18\x0c,\x1e\t\x8d\xd2'
p11
tp12
Rp13
sS'input'
p14
S''
p15
ss.(dp0
S'data'
p1
(dp2
S'success'
p3
I01
sS'settings'
p4
(lp5
F3.0
aI4
asS'normal'
p6
I00
sS'output'
p7
S'hello\nA1234'
p8
sS'date'
p9
cdatetime
datetime
p10
(S'\x07\xe1\x08\x18\x0c,\x1f\x00K\x94'
p11
tp12
Rp13
sS'input'
p14
S''
p15
ss.(dp0
S'data'
p1
(dp2
S'success'
p3
I01
sS'settings'
p4
(lp5
F3.5
aI4
asS'normal'
p6
I00
sS'output'
p7
S'hello\nA1234'
p8
sS'date'
p9
cdatetime
datetime
p10
(S'\x07\xe1\x08\x18\x0c,\x1f\x06_\x9b'
p11
tp12
Rp13
sS'input'
p14
S''
p15
ss.(dp0
S'data'
p1
(dp2
S'success'
p3
I01
sS'settings'
p4
(lp5
F4.0
aI4
asS'normal'
p6
I00
sS'output'
p7
S'hello\nA1234'
p8
sS'date'
p9
cdatetime
datetime
p10
(S'\x07\xe1\x08\x18\x0c,\x1f\x0c\xf3\x04'
p11
tp12
Rp13
sS'input'
p14
S''
p15
ss.(dp0
S'data'
p1
(dp2
S'success'
p3
I01
sS'settings'
p4
(lp5
F4.5
aI4
asS'normal'
p6
I00
sS'output'
p7
S'hello\nA1234'
p8
sS'date'
p9
cdatetime
datetime
p10
(S'\x07\xe1\x08\x18\x0c, \x03\xc35'
p11
tp12
Rp13
sS'input'
p14
S''
p15
ss.(dp0
S'data'
p1
(dp2
S'success'
p3
I01
sS'settings'
p4
(lp5
F5.0
aI4
asS'normal'
p6
I00
sS'output'
p7
S'hello\nA1234'
p8
sS'date'
p9
cdatetime
datetime
p10
(S'\x07\xe1\x08\x18\x0c, \n\x95X'
p11
tp12
Rp13
sS'input'
p14
S''
p15
ss.(dp0
S'data'
p1
(dp2
S'success'
p3
I01
sS'settings'
p4
(lp5
F5.5
aI4
asS'normal'
p6
I00
sS'output'
p7
S'hello\nA1234'
p8
sS'date'
p9
cdatetime
datetime
p10
(S'\x07\xe1\x08\x18\x0c,!\x01\xa4Y'
p11
tp12
Rp13
sS'input'
p14
S''
p15
ss.(dp0
S'data'
p1
(dp2
S'success'
p3
I01
sS'settings'
p4
(lp5
F6.0
aI4
asS'normal'
p6
I00
sS'output'
p7
S'hello\nA1234'
p8
sS'date'
p9
cdatetime
datetime
p10
(S'\x07\xe1\x08\x18\x0c,!\x07\xc6\x16'
p11
tp12
Rp13
sS'input'
p14
S''
p15
ss.(dp0
S'data'
p1
(dp2
S'success'
p3
I01
sS'settings'
p4
(lp5
F6.5
aI4
asS'normal'
p6
I00
sS'output'
p7
S'hello\nA1234'
p8
sS'date'
p9
cdatetime
datetime
p10
(S'\x07\xe1\x08\x18\x0c,!\r\xd2\xd2'
p11
tp12
Rp13
sS'input'
p14
S''
p15
ss.(dp0
S'data'
p1
(dp2
S'success'
p3
I00
sS'settings'
p4
(lp5
F7.0
aI4
asS'normal'
p6
I00
sS'output'
p7
S'hello\nA'
p8
sS'date'
p9
cdatetime
datetime
p10
(S'\x07\xe1\x08\x18\x0c,"\x04\x99\xc6'
p11
tp12
Rp13
sS'input'
p14
S''
p15
ss.(dp0
S'data'
p1
(dp2
S'success'
p3
I00
sS'settings'
p4
(lp5
F7.5
aI4
asS'normal'
p6
I00
sS'output'
p7
S'hello\nA'
p8
sS'date'
p9
cdatetime
datetime
p10
(S'\x07\xe1\x08\x18\x0c,"\n\xe3\xa8'
p11
tp12
Rp13
sS'input'
p14
S''
p15
ss.(dp0
S'data'
p1
(dp2
S'success'
p3
I00
sS'settings'
p4
(lp5
F8.0
aI4
asS'normal'
p6
I00
sS'output'
p7
S'hello\nA'
p8
sS'date'
p9
cdatetime
datetime
p10
(S'\x07\xe1\x08\x18\x0c,#\x02\x02F'
p11
tp12
Rp13
sS'input'
p14
S''
p15
ss.(dp0
S'data'
p1
(dp2
S'success'
p3
I00
sS'settings'
p4
(lp5
F8.5
aI4
asS'normal'
p6
I00
sS'output'
p7
S'hello\nA'
p8
sS'date'
p9
cdatetime
datetime
p10
(S'\x07\xe1\x08\x18\x0c,#\x08*x'
p11
tp12
Rp13
sS'input'
p14
S''
p15
ss.(dp0
S'data'
p1
(dp2
S'success'
p3
I00
sS'settings'
p4
(lp5
F9.0
aI4
asS'normal'
p6
I00
sS'output'
p7
S'hello\nA'
p8
sS'date'
p9
cdatetime
datetime
p10
(S'\x07\xe1\x08\x18\x0c,#\x0e<\x11'
p11
tp12
Rp13
sS'input'
p14
S''
p15
ss.(dp0
S'data'
p1
(dp2
S'success'
p3
I00
sS'settings'
p4
(lp5
F9.5
aI4
asS'normal'
p6
I00
sS'output'
p7
S'hello\nA'
p8
sS'date'
p9
cdatetime
datetime
p10
(S'\x07\xe1\x08\x18\x0c,$\x05\r\xba'
p11
tp12
Rp13
sS'input'
p14
S''
p15
ss.(dp0
S'data'
p1
(dp2
S'success'
p3
I00
sS'settings'
p4
(lp5
F10.0
aI4
asS'normal'
p6
I00
sS'output'
p7
S'hello\nA'
p8
sS'date'
p9
cdatetime
datetime
p10
(S'\x07\xe1\x08\x18\x0c,$\x0b*y'
p11
tp12
Rp13
sS'input'
p14
S''
p15
ss.(dp0
S'data'
p1
(dp2
S'success'
p3
I00
sS'settings'
p4
(lp5
F10.5
aI4
asS'normal'
p6
I00
sS'output'
p7
S'hello\nA'
p8
sS'date'
p9
cdatetime
datetime
p10
(S'\x07\xe1\x08\x18\x0c,%\x01\xfbi'
p11
tp12
Rp13
sS'input'
p14
S''
p15
ss.(dp0
S'data'
p1
(dp2
S'success'
p3
I00
sS'settings'
p4
(lp5
F11.0
aI4
asS'normal'
p6
I00
sS'output'
p7
S'*\x00\x00hello\nA'
p8
sS'date'
p9
cdatetime
datetime
p10
(S'\x07\xe1\x08\x18\x0c,%\x08b;'
p11
tp12
Rp13
sS'input'
p14
S''
p15
ss.(dp0
S'data'
p1
(dp2
S'success'
p3
I00
sS'settings'
p4
(lp5
F11.5
aI4
asS'normal'
p6
I00
sS'output'
p7
S'*\x00hello\nA'
p8
sS'date'
p9
cdatetime
datetime
p10
(S'\x07\xe1\x08\x18\x0c,%\x0f3\xfa'
p11
tp12
Rp13
sS'input'
p14
S''
p15
ss.(dp0
S'data'
p1
(dp2
S'success'
p3
I00
sS'settings'
p4
(lp5
F12.0
aI4
asS'normal'
p6
I01
sS'output'
p7
S'\x00hello\nA'
p8
sS'date'
p9
cdatetime
datetime
p10
(S'\x07\xe1\x08\x18\x0c,&\x06TG'
p11
tp12
Rp13
sS'input'
p14
S''
p15
ss.(dp0
S'data'
p1
(dp2
S'success'
p3
I00
sS'settings'
p4
(lp5
F12.5
aI4
asS'normal'
p6
I00
sS'output'
p7
S'hello\nA'
p8
sS'date'
p9
cdatetime
datetime
p10
(S'\x07\xe1\x08\x18\x0c,&\x0cQ_'
p11
tp12
Rp13
sS'input'
p14
S''
p15
ss.