(dp0
S'notes'
p1
S''
p2
s.(dp0
S'commands'
p1
(lp2
V['Glitch Module', 'Glitch Offset (as % of period)']
p3
as.(dp0
S'data'
p1
(dp2
S'success'
p3
I00
sS'settings'
p4
(lp5
F-30.0
asS'normal'
p6
I00
sS'output'
p7
S'h\x01hello\nA'
p8
sS'date'
p9
cdatetime
datetime
p10
(S'\x07\xe1\x08\x18\t*\x02\x0b@\xdb'
p11
tp12
Rp13
sS'input'
p14
S''
p15
ss.(dp0
S'data'
p1
(dp2
S'success'
p3
I00
sS'settings'
p4
(lp5
F-29.5
asS'normal'
p6
I00
sS'output'
p7
S'hello\nA'
p8
sS'date'
p9
cdatetime
datetime
p10
(S'\x07\xe1\x08\x18\t*\x03\x02c\x16'
p11
tp12
Rp13
sS'input'
p14
S''
p15
ss.(dp0
S'data'
p1
(dp2
S'success'
p3
I00
sS'settings'
p4
(lp5
F-29.0
asS'normal'
p6
I00
sS'output'
p7
S'hello\nA'
p8
sS'date'
p9
cdatetime
datetime
p10
(S'\x07\xe1\x08\x18\t*\x03\x08\x7f\xc2'
p11
tp12
Rp13
sS'input'
p14
S''
p15
ss.(dp0
S'data'
p1
(dp2
S'success'
p3
I00
sS'settings'
p4
(lp5
F-28.5
asS'normal'
p6
I00
sS'output'
p7
S'hello\nA'
p8
sS'date'
p9
cdatetime
datetime
p10
(S'\x07\xe1\x08\x18\t*\x03\x0e\x9b\xfb'
p11
tp12
Rp13
sS'input'
p14
S''
p15
ss.(dp0
S'data'
p1
(dp2
S'success'
p3
I00
sS'settings'
p4
(lp5
F-28.0
asS'normal'
p6
I00
sS'output'
p7
S'hello\nA'
p8
sS'date'
p9
cdatetime
datetime
p10
(S'\x07\xe1\x08\x18\t*\x04\x05c='
p11
tp12
Rp13
sS'input'
p14
S''
p15
ss.(dp0
S'data'
p1
(dp2
S'success'
p3
I00
sS'settings'
p4
(lp5
F-27.5
asS'normal'
p6
I00
sS'output'
p7
S'hello\nA'
p8
sS'date'
p9
cdatetime
datetime
p10
(S'\x07\xe1\x08\x18\t*\x04\x0b\x9e\x1e'
p11
tp12
Rp13
sS'input'
p14
S''
p15
ss.(dp0
S'data'
p1
(dp2
S'success'
p3
I00
sS'settings'
p4
(lp5
F-27.0
asS'normal'
p6
I00
sS'output'
p7
S'hello\nA'
p8
sS'date'
p9
cdatetime
datetime
p10
(S'\x07\xe1\x08\x18\t*\x05\x02o*'
p11
tp12
Rp13
sS'input'
p14
S''
p15
ss.(dp0
S'data'
p1
(dp2
S'success'
p3
I00
sS'settings'
p4
(lp5
F-26.5
asS'normal'
p6
I00
sS'output'
p7
S'hello\nA'
p8
sS'date'
p9
cdatetime
datetime
p10
(S'\x07\xe1\x08\x18\t*\x05\x08\x84\xe3'
p11
tp12
Rp13
sS'input'
p14
S''
p15
ss.(dp0
S'data'
p1
(dp2
S'success'
p3
I00
sS'settings'
p4
(lp5
F-26.0
asS'normal'
p6
I00
sS'output'
p7
S'hello\nA'
p8
sS'date'
p9
cdatetime
datetime
p10
(S'\x07\xe1\x08\x18\t*\x05\x0e\x8e\x89'
p11
tp12
Rp13
sS'input'
p14
S''
p15
ss.(dp0
S'data'
p1
(dp2
S'success'
p3
I00
sS'settings'
p4
(lp5
F-25.5
asS'normal'
p6
I00
sS'output'
p7
S'hello\nA'
p8
sS'date'
p9
cdatetime
datetime
p10
(S'\x07\xe1\x08\x18\t*\x06\x05lG'
p11
tp12
Rp13
sS'input'
p14
S''
p15
ss.(dp0
S'data'
p1
(dp2
S'success'
p3
I00
sS'settings'
p4
(lp5
F-25.0
asS'normal'
p6
I00
sS'output'
p7
S'hello\nA'
p8
sS'date'
p9
cdatetime
datetime
p10
(S'\x07\xe1\x08\x18\t*\x06\x0bz\xc0'
p11
tp12
Rp13
sS'input'
p14
S''
p15
ss.(dp0
S'data'
p1
(dp2
S'success'
p3
I00
sS'settings'
p4
(lp5
F-24.5
asS'normal'
p6
I00
sS'output'
p7
S'hello\nA'
p8
sS'date'
p9
cdatetime
datetime
p10
(S'\x07\xe1\x08\x18\t*\x07\x02}\x82'
p11
tp12
Rp13
sS'input'
p14
S''
p15
ss.(dp0
S'data'
p1
(dp2
S'success'
p3
I00
sS'settings'
p4
(lp5
F-24.0
asS'normal'
p6
I00
sS'output'
p7
S'hello\nA'
p8
sS'date'
p9
cdatetime
datetime
p10
(S'\x07\xe1\x08\x18\t*\x07\x08\xabF'
p11
tp12
Rp13
sS'input'
p14
S''
p15
ss.(dp0
S'data'
p1
(dp2
S'success'
p3
I00
sS'settings'
p4
(lp5
F-23.5
asS'normal'
p6
I00
sS'output'
p7
S'hello\nA'
p8
sS'date'
p9
cdatetime
datetime
p10
(S'\x07\xe1\x08\x18\t*\x07\x0e\xd25'
p11
tp12
Rp13
sS'input'
p14
S''
p15
ss.(dp0
S'data'
p1
(dp2
S'success'
p3
I00
sS'settings'
p4
(lp5
F-23.0
asS'normal'
p6
I00
sS'output'
p7
S'hello\nA'
p8
sS'date'
p9
cdatetime
datetime
p10
(S'\x07\xe1\x08\x18\t*\x08\x05\xb8<'
p11
tp12
Rp13
sS'input'
p14
S''
p15
ss.(dp0
S'data'
p1
(dp2
S'success'
p3
I00
sS'settings'
p4
(lp5
F-22.5
asS'normal'
p6
I00
sS'output'
p7
S'hello\nA'
p8
sS'date'
p9
cdatetime
datetime
p10
(S'\x07\xe1\x08\x18\t*\x08\x0b\xf71'
p11
tp12
Rp13
sS'input'
p14
S''
p15
ss.(dp0
S'data'
p1
(dp2
S'success'
p3
I00
sS'settings'
p4
(lp5
F-22.0
asS'normal'
p6
I00
sS'output'
p7
S'hello\nA'
p8
sS'date'
p9
cdatetime
datetime
p10
(S'\x07\xe1\x08\x18\t*\t\x02\xe1r'
p11
tp12
Rp13
sS'input'
p14
S''
p15
ss.(dp0
S'data'
p1
(dp2
S'success'
p3
I00
sS'settings'
p4
(lp5
F-21.5
asS'normal'
p6
I00
sS'output'
p7
S'hello\nA'
p8
sS'date'
p9
cdatetime
datetime
p10
(S'\x07\xe1\x08\x18\t*\t\t2\xc3'
p11
tp12
Rp13
sS'input'
p14
S''
p15
ss.(dp0
S'data'
p1
(dp2
S'success'
p3
I00
sS'settings'
p4
(lp5
F-21.0
asS'normal'
p6
I00
sS'output'
p7
S'hello\nA'
p8
sS'date'
p9
cdatetime
datetime
p10
(S'\x07\xe1\x08\x18\t*\n\x00+C'
p11
tp12
Rp13
sS'input'
p14
S''
p15
ss.(dp0
S'data'
p1
(dp2
S'success'
p3
I00
sS'settings'
p4
(lp5
F-20.5
asS'normal'
p6
I00
sS'output'
p7
S'hello\nA'
p8
sS'date'
p9
cdatetime
datetime
p10
(S'\x07\xe1\x08\x18\t*\n\x06b\xa6'
p11
tp12
Rp13
sS'input'
p14
S''
p15
ss.(dp0
S'data'
p1
(dp2
S'success'
p3
I00
sS'settings'
p4
(lp5
F-20.0
asS'normal'
p6
I00
sS'output'
p7
S'hello\nA'
p8
sS'date'
p9
cdatetime
datetime
p10
(S'\x07\xe1\x08\x18\t*\n\x0c\x89\x01'
p11
tp12
Rp13
sS'input'
p14
S''
p15
ss.(dp0
S'data'
p1
(dp2
S'success'
p3
I00
sS'settings'
p4
(lp5
F-19.5
asS'normal'
p6
I00
sS'output'
p7
S'hello\nA'
p8
sS'date'
p9
cdatetime
datetime
p10
(S'\x07\xe1\x08\x18\t*\x0b\x03yV'
p11
tp12
Rp13
sS'input'
p14
S''
p15
ss.(dp0
S'data'
p1
(dp2
S'success'
p3
I00
sS'settings'
p4
(lp5
F-19.0
asS'normal'
p6
I00
sS'output'
p7
S'hello\nA'
p8
sS'date'
p9
cdatetime
datetime
p10
(S'\x07\xe1\x08\x18\t*\x0b\t\xc2y'
p11
tp12
Rp13
sS'input'
p14
S''
p15
ss.(dp0
S'data'
p1
(dp2
S'success'
p3
I00
sS'settings'
p4
(lp5
F-18.5
asS'normal'
p6
I00
sS'output'
p7
S'hello\nA'
p8
sS'date'
p9
cdatetime
datetime
p10
(S'\x07\xe1\x08\x18\t*\x0c\x00\xdaR'
p11
tp12
Rp13
sS'input'
p14
S''
p15
ss.(dp0
S'data'
p1
(dp2
S'success'
p3
I00
sS'settings'
p4
(lp5
F-18.0
asS'normal'
p6
I00
sS'output'
p7
S'hello\nA'
p8
sS'date'
p9
cdatetime
datetime
p10
(S'\x07\xe1\x08\x18\t*\x0c\x07\x1cg'
p11
tp12
Rp13
sS'input'
p14
S''
p15
ss.(dp0
S'data'
p1
(dp2
S'success'
p3
I00
sS'settings'
p4
(lp5
F-17.5
asS'normal'
p6
I00
sS'output'
p7
S'hello\nA'
p8
sS'date'
p9
cdatetime
datetime
p10
(S'\x07\xe1\x08\x18\t*\x0c\r\x83\x03'
p11
tp12
Rp13
sS'input'
p14
S''
p15
ss.(dp0
S'data'
p1
(dp2
S'success'
p3
I00
sS'settings'
p4
(lp5
F-17.0
asS'normal'
p6
I00
sS'output'
p7
S'hello\nA'
p8
sS'date'
p9
cdatetime
datetime
p10
(S'\x07\xe1\x08\x18\t*\r\x04\x8a['
p11
tp12
Rp13
sS'input'
p14
S''
p15
ss.(dp0
S'data'
p1
(dp2
S'success'
p3
I00
sS'settings'
p4
(lp5
F-16.5
asS'normal'
p6
I00
sS'output'
p7
S'hello\nA'
p8
sS'date'
p9
cdatetime
datetime
p10
(S'\x07\xe1\x08\x18\t*\r\n\xf0r'
p11
tp12
Rp13
sS'input'
p14
S''
p15
ss.(dp0
S'data'
p1
(dp2
S'success'
p3
I00
sS'settings'
p4
(lp5
F-16.0
asS'normal'
p6
I00
sS'output'
p7
S'hello\nA'
p8
sS'date'
p9
cdatetime
datetime
p10
(S'\x07\xe1\x08\x18\t*\x0e\x01\xf2\xd4'
p11
tp12
Rp13
sS'input'
p14
S''
p15
ss.(dp0
S'data'
p1
(dp2
S'success'
p3
I00
sS'settings'
p4
(lp5
F-15.5
asS'normal'
p6
I00
sS'output'
p7
S'hello\nA'
p8
sS'date'
p9
cdatetime
datetime
p10
(S'\x07\xe1\x08\x18\t*\x0e\x08H\x1a'
p11
tp12
Rp13
sS'input'
p14
S''
p15
ss.(dp0
S'data'
p1
(dp2
S'success'
p3
I00
sS'settings'
p4
(lp5
F-15.0
asS'normal'
p6
I00
sS'output'
p7
S'hello\nA'
p8
sS'date'
p9
cdatetime
datetime
p10
(S'\x07\xe1\x08\x18\t*\x0e\x0e\x8e\xf9'
p11
tp12
Rp13
sS'input'
p14
S''
p15
ss.(dp0
S'data'
p1
(dp2
S'success'
p3
I00
sS'settings'
p4
(lp5
F-14.5
asS'normal'
p6
I00
sS'output'
p7
S'hello\nA'
p8
sS'date'
p9
cdatetime
datetime
p10
(S'\x07\xe1\x08\x18\t*\x0f\x05\xb1z'
p11
tp12
Rp13
sS'input'
p14
S''
p15
ss.(dp0
S'data'
p1
(dp2
S'success'
p3
I00
sS'settings'
p4
(lp5
F-14.0
asS'normal'
p6
I00
sS'output'
p7
S'hello\nA'
p8
sS'date'
p9
cdatetime
datetime
p10
(S'\x07\xe1\x08\x18\t*\x0f\x0b\xf7\x00'
p11
tp12
Rp13
sS'input'
p14
S''
p15
ss.(dp0
S'data'
p1
(dp2
S'success'
p3
I00
sS'settings'
p4
(lp5
F-13.5
asS'normal'
p6
I00
sS'output'
p7
S'hello\nA'
p8
sS'date'
p9
cdatetime
datetime
p10
(S'\x07\xe1\x08\x18\t*\x10\x03\x14\xc7'
p11
tp12
Rp13
sS'input'
p14
S''
p15
ss.(dp0
S'data'
p1
(dp2
S'success'
p3
I00
sS'settings'
p4
(lp5
F-13.0
asS'normal'
p6
I00
sS'output'
p7
S'hello\nA'
p8
sS'date'
p9
cdatetime
datetime
p10
(S'\x07\xe1\x08\x18\t*\x10\to}'
p11
tp12
Rp13
sS'input'
p14
S''
p15
ss.(dp0
S'data'
p1
(dp2
S'success'
p3
I00
sS'settings'
p4
(lp5
F-12.5
asS'normal'
p6
I00
sS'output'
p7
S'hello\nA'
p8
sS'date'
p9
cdatetime
datetime
p10
(S'\x07\xe1\x08\x18\t*\x11\x00y\xa2'
p11
tp12
Rp13
sS'input'
p14
S''
p15
ss.(dp0
S'data'
p1
(dp2
S'success'
p3
I01
sS'settings'
p4
(lp5
F-12.0
asS'normal'
p6
I00
sS'output'
p7
S'hello\nA1234'
p8
sS'date'
p9
cdatetime
datetime
p10
(S'\x07\xe1\x08\x18\t*\x11\x06\xbf\xe9'
p11
tp12
Rp13
sS'input'
p14
S''
p15
ss.(dp0
S'data'
p1
(dp2
S'success'
p3
I01
sS'settings'
p4
(lp5
F-11.5
asS'normal'
p6
I00
sS'output'
p7
S'hello\nA1234'
p8
sS'date'
p9
cdatetime
datetime
p10
(S'\x07\xe1\x08\x18\t*\x11\r 1'
p11
tp12
Rp13
sS'input'
p14
S''
p15
ss.(dp0
S'data'
p1
(dp2
S'success'
p3
I01
sS'settings'
p4
(lp5
F-11.0
asS'normal'
p6
I00
sS'output'
p7
S'hello\nA1234'
p8
sS'date'
p9
cdatetime
datetime
p10
(S'\x07\xe1\x08\x18\t*\x12\x04L\x85'
p11
tp12
Rp13
sS'input'
p14
S''
p15
ss.(dp0
S'data'
p1
(dp2
S'success'
p3
I01
sS'settings'
p4
(lp5
F-10.5
asS'normal'
p6
I00
sS'output'
p7
S'hello\nA1234'
p8
sS'date'
p9
cdatetime
datetime
p10
(S'\x07\xe1\x08\x18\t*\x12\n\xac\xd8'
p11
tp12
Rp13
sS'input'
p14
S''
p15
ss.(dp0
S'data'
p1
(dp2
S'success'
p3
I01
sS'settings'
p4
(lp5
F-10.0
asS'normal'
p6
I00
sS'output'
p7
S'hello\nA1234'
p8
sS'date'
p9
cdatetime
datetime
p10
(S'\x07\xe1\x08\x18\t*\x13\x01\xcd\xd5'
p11
tp12
Rp13
sS'input'
p14
S''
p15
ss.(dp0
S'data'
p1
(dp2
S'success'
p3
I00
sS'settings'
p4
(lp5
F-9.5
asS'normal'
p6
I00
sS'output'
p7
S'hello\nA'
p8
sS'date'
p9
cdatetime
datetime
p10
(S'\x07\xe1\x08\x18\t*\x13\x08J\xa2'
p11
tp12
Rp13
sS'input'
p14
S''
p15
ss.(dp0
S'data'
p1
(dp2
S'success'
p3
I00
sS'settings'
p4
(lp5
F-9.0
asS'normal'
p6
I00
sS'output'
p7
S'hello\nA'
p8
sS'date'
p9
cdatetime
datetime
p10
(S'\x07\xe1\x08\x18\t*\x13\x0e\xbdm'
p11
tp12
Rp13
sS'input'
p14
S''
p15
ss.(dp0
S'data'
p1
(dp2
S'success'
p3
I00
sS'settings'
p4
(lp5
F-8.5
asS'normal'
p6
I00
sS'output'
p7
S'hello\nA'
p8
sS'date'
p9
cdatetime
datetime
p10
(S'\x07\xe1\x08\x18\t*\x14\x05\xea\x0f'
p11
tp12
Rp13
sS'input'
p14
S''
p15
ss.(dp0
S'data'
p1
(dp2
S'success'
p3
I00
sS'settings'
p4
(lp5
F-8.0
asS'normal'
p6
I00
sS'output'
p7
S'hello\nA'
p8
sS'date'
p9
cdatetime
datetime
p10
(S'\x07\xe1\x08\x18\t*\x14\x0cgA'
p11
tp12
Rp13
sS'input'
p14
S''
p15
ss.(dp0
S'data'
p1
(dp2
S'success'
p3
I01
sS'settings'
p4
(lp5
F-7.5
asS'normal'
p6
I00
sS'output'
p7
S'\x04hello\nA1234'
p8
sS'date'
p9
cdatetime
datetime
p10
(S'\x07\xe1\x08\x18\t*\x15\x03\xc01'
p11
tp12
Rp13
sS'input'
p14
S''
p15
ss.(dp0
S'data'
p1
(dp2
S'success'
p3
I01
sS'settings'
p4
(lp5
F-7.0
asS'normal'
p6
I00
sS'output'
p7
S'hello\nA1234'
p8
sS'date'
p9
cdatetime
datetime
p10
(S'\x07\xe1\x08\x18\t*\x15\n\xf4\xdb'
p11
tp12
Rp13
sS'input'
p14
S''
p15
ss.(dp0
S'data'
p1
(dp2
S'success'
p3
I01
sS'settings'
p4
(lp5
F-6.5
asS'normal'
p6
I00
sS'output'
p7
S'hello\nA1234'
p8
sS'date'
p9
cdatetime
datetime
p10
(S'\x07\xe1\x08\x18\t*\x16\x02^\xb3'
p11
tp12
Rp13
sS'input'
p14
S''
p15
ss.