(dp0
S'notes'
p1
S''
p2
s.(dp0
S'commands'
p1
(lp2
V['Glitch Module', 'Glitch Offset (as % of period)']
p3
as.(dp0
S'data'
p1
(dp2
S'success'
p3
I01
sS'settings'
p4
(lp5
F-11.0
asS'normal'
p6
I00
sS'output'
p7
S'hello\nA1234'
p8
sS'date'
p9
cdatetime
datetime
p10
(S'\x07\xe1\x08\x18\n$\x1f\x04Ja'
p11
tp12
Rp13
sS'input'
p14
S''
p15
ss.(dp0
S'data'
p1
(dp2
S'success'
p3
I01
sS'settings'
p4
(lp5
F-10.5
asS'normal'
p6
I00
sS'output'
p7
S'hello\nA1234'
p8
sS'date'
p9
cdatetime
datetime
p10
(S'\x07\xe1\x08\x18\n$\x1f\n\xedH'
p11
tp12
Rp13
sS'input'
p14
S''
p15
ss.(dp0
S'data'
p1
(dp2
S'success'
p3
I01
sS'settings'
p4
(lp5
F-10.0
asS'normal'
p6
I00
sS'output'
p7
S'hello\nA1234'
p8
sS'date'
p9
cdatetime
datetime
p10
(S'\x07\xe1\x08\x18\n$ \x01\xaet'
p11
tp12
Rp13
sS'input'
p14
S''
p15
ss.(dp0
S'data'
p1
(dp2
S'success'
p3
I00
sS'settings'
p4
(lp5
F-9.5
asS'normal'
p6
I00
sS'output'
p7
S'hello\nA'
p8
sS'date'
p9
cdatetime
datetime
p10
(S'\x07\xe1\x08\x18\n$ \x07\xbc\xad'
p11
tp12
Rp13
sS'input'
p14
S''
p15
ss.(dp0
S'data'
p1
(dp2
S'success'
p3
I00
sS'settings'
p4
(lp5
F-9.0
asS'normal'
p6
I00
sS'output'
p7
S'hello\nA'
p8
sS'date'
p9
cdatetime
datetime
p10
(S'\x07\xe1\x08\x18\n$ \r\xcd\t'
p11
tp12
Rp13
sS'input'
p14
S''
p15
ss.(dp0
S'data'
p1
(dp2
S'success'
p3
I00
sS'settings'
p4
(lp5
F-8.5
asS'normal'
p6
I00
sS'output'
p7
S'hello\nA'
p8
sS'date'
p9
cdatetime
datetime
p10
(S'\x07\xe1\x08\x18\n$!\x04\x9e>'
p11
tp12
Rp13
sS'input'
p14
S''
p15
ss.(dp0
S'data'
p1
(dp2
S'success'
p3
I00
sS'settings'
p4
(lp5
F-8.0
asS'normal'
p6
I00
sS'output'
p7
S'hello\nA'
p8
sS'date'
p9
cdatetime
datetime
p10
(S'\x07\xe1\x08\x18\n$!\n\xb2\xfd'
p11
tp12
Rp13
sS'input'
p14
S''
p15
ss.(dp0
S'data'
p1
(dp2
S'success'
p3
I01
sS'settings'
p4
(lp5
F-7.5
asS'normal'
p6
I00
sS'output'
p7
S'hello\nA1234'
p8
sS'date'
p9
cdatetime
datetime
p10
(S'\x07\xe1\x08\x18\n$"\x012?'
p11
tp12
Rp13
sS'input'
p14
S''
p15
ss.(dp0
S'data'
p1
(dp2
S'success'
p3
I01
sS'settings'
p4
(lp5
F-7.0
asS'normal'
p6
I00
sS'output'
p7
S'hello\nA1234'
p8
sS'date'
p9
cdatetime
datetime
p10
(S'\x07\xe1\x08\x18\n$"\x07>\xb9'
p11
tp12
Rp13
sS'input'
p14
S''
p15
ss.(dp0
S'data'
p1
(dp2
S'success'
p3
I01
sS'settings'
p4
(lp5
F-6.5
asS'normal'
p6
I00
sS'output'
p7
S'hello\nA1234'
p8
sS'date'
p9
cdatetime
datetime
p10
(S'\x07\xe1\x08\x18\n$"\r$\xcd'
p11
tp12
Rp13
sS'input'
p14
S''
p15
ss.(dp0
S'data'
p1
(dp2
S'success'
p3
I01
sS'settings'
p4
(lp5
F-6.0
asS'normal'
p6
I00
sS'output'
p7
S'hello\nA1234'
p8
sS'date'
p9
cdatetime
datetime
p10
(S'\x07\xe1\x08\x18\n$#\x03\xda\x8b'
p11
tp12
Rp13
sS'input'
p14
S''
p15
ss.(dp0
S'data'
p1
(dp2
S'success'
p3
I01
sS'settings'
p4
(lp5
F-5.5
asS'normal'
p6
I00
sS'output'
p7
S'hello\nA1234'
p8
sS'date'
p9
cdatetime
datetime
p10
(S'\x07\xe1\x08\x18\n$#\n\na'
p11
tp12
Rp13
sS'input'
p14
S''
p15
ss.(dp0
S'data'
p1
(dp2
S'success'
p3
I01
sS'settings'
p4
(lp5
F-5.0
asS'normal'
p6
I00
sS'output'
p7
S'hello\nA1234'
p8
sS'date'
p9
cdatetime
datetime
p10
(S'\x07\xe1\x08\x18\n$$\x00\xe5\xdc'
p11
tp12
Rp13
sS'input'
p14
S''
p15
ss.(dp0
S'data'
p1
(dp2
S'success'
p3
I01
sS'settings'
p4
(lp5
F-4.5
asS'normal'
p6
I00
sS'output'
p7
S'hello\nA1234'
p8
sS'date'
p9
cdatetime
datetime
p10
(S'\x07\xe1\x08\x18\n$$\x07\tH'
p11
tp12
Rp13
sS'input'
p14
S''
p15
ss.(dp0
S'data'
p1
(dp2
S'success'
p3
I01
sS'settings'
p4
(lp5
F-4.0
asS'normal'
p6
I00
sS'output'
p7
S'hello\nA1234'
p8
sS'date'
p9
cdatetime
datetime
p10
(S'\x07\xe1\x08\x18\n$$\r*\xfc'
p11
tp12
Rp13
sS'input'
p14
S''
p15
ss.(dp0
S'data'
p1
(dp2
S'success'
p3
I01
sS'settings'
p4
(lp5
F-3.5
asS'normal'
p6
I00
sS'output'
p7
S'hello\nA1234'
p8
sS'date'
p9
cdatetime
datetime
p10
(S'\x07\xe1\x08\x18\n$%\x04\x1a\x8a'
p11
tp12
Rp13
sS'input'
p14
S''
p15
ss.(dp0
S'data'
p1
(dp2
S'success'
p3
I00
sS'settings'
p4
(lp5
F-3.0
asS'normal'
p6
I00
sS'output'
p7
S'hello\nA'
p8
sS'date'
p9
cdatetime
datetime
p10
(S'\x07\xe1\x08\x18\n$%\n\t\xd5'
p11
tp12
Rp13
sS'input'
p14
S''
p15
ss.(dp0
S'data'
p1
(dp2
S'success'
p3
I00
sS'settings'
p4
(lp5
F-2.5
asS'normal'
p6
I00
sS'output'
p7
S'hello\nA'
p8
sS'date'
p9
cdatetime
datetime
p10
(S"\x07\xe1\x08\x18\n$&\x00\xd3'"
p11
tp12
Rp13
sS'input'
p14
S''
p15
ss.(dp0
S'data'
p1
(dp2
S'success'
p3
I00
sS'settings'
p4
(lp5
F-2.0
asS'normal'
p6
I00
sS'output'
p7
S'hello\nA'
p8
sS'date'
p9
cdatetime
datetime
p10
(S'\x07\xe1\x08\x18\n$&\x07\x0c\xfc'
p11
tp12
Rp13
sS'input'
p14
S''
p15
ss.(dp0
S'data'
p1
(dp2
S'success'
p3
I00
sS'settings'
p4
(lp5
F-1.5
asS'normal'
p6
I00
sS'output'
p7
S'hello\nA'
p8
sS'date'
p9
cdatetime
datetime
p10
(S'\x07\xe1\x08\x18\n$&\r!B'
p11
tp12
Rp13
sS'input'
p14
S''
p15
ss.(dp0
S'data'
p1
(dp2
S'success'
p3
I00
sS'settings'
p4
(lp5
F-1.0
asS'normal'
p6
I00
sS'output'
p7
S'hello\nA'
p8
sS'date'
p9
cdatetime
datetime
p10
(S"\x07\xe1\x08\x18\n$'\x03\xe4\xaa"
p11
tp12
Rp13
sS'input'
p14
S''
p15
ss.(dp0
S'data'
p1
(dp2
S'success'
p3
I00
sS'settings'
p4
(lp5
F-0.5
asS'normal'
p6
I00
sS'output'
p7
S'hello\nA'
p8
sS'date'
p9
cdatetime
datetime
p10
(S"\x07\xe1\x08\x18\n$'\n\x1d\x9b"
p11
tp12
Rp13
sS'input'
p14
S''
p15
ss.(dp0
S'data'
p1
(dp2
S'success'
p3
I00
sS'settings'
p4
(lp5
F0.0
asS'normal'
p6
I00
sS'output'
p7
S'hello\nA'
p8
sS'date'
p9
cdatetime
datetime
p10
(S'\x07\xe1\x08\x18\n$(\x01\x13\x8a'
p11
tp12
Rp13
sS'input'
p14
S''
p15
ss.(dp0
S'data'
p1
(dp2
S'success'
p3
I00
sS'settings'
p4
(lp5
F0.5
asS'normal'
p6
I00
sS'output'
p7
S'hello\nA'
p8
sS'date'
p9
cdatetime
datetime
p10
(S'\x07\xe1\x08\x18\n$(\x075\x95'
p11
tp12
Rp13
sS'input'
p14
S''
p15
ss.(dp0
S'data'
p1
(dp2
S'success'
p3
I00
sS'settings'
p4
(lp5
F1.0
asS'normal'
p6
I00
sS'output'
p7
S'hello\nA'
p8
sS'date'
p9
cdatetime
datetime
p10
(S'\x07\xe1\x08\x18\n$(\r\x89e'
p11
tp12
Rp13
sS'input'
p14
S''
p15
ss.(dp0
S'data'
p1
(dp2
S'success'
p3
I01
sS'settings'
p4
(lp5
F1.5
asS'normal'
p6
I00
sS'output'
p7
S'hello\nA1234'
p8
sS'date'
p9
cdatetime
datetime
p10
(S'\x07\xe1\x08\x18\n$)\x04si'
p11
tp12
Rp13
sS'input'
p14
S''
p15
ss.(dp0
S'data'
p1
(dp2
S'success'
p3
I00
sS'settings'
p4
(lp5
F2.0
asS'normal'
p6
I00
sS'output'
p7
S'hello\nA'
p8
sS'date'
p9
cdatetime
datetime
p10
(S'\x07\xe1\x08\x18\n$)\x0bqF'
p11
tp12
Rp13
sS'input'
p14
S''
p15
ss.(dp0
S'data'
p1
(dp2
S'success'
p3
I00
sS'settings'
p4
(lp5
F2.5
asS'normal'
p6
I01
sS'output'
p7
S'\x00hello\nA'
p8
sS'date'
p9
cdatetime
datetime
p10
(S'\x07\xe1\x08\x18\n$*\x02\xc1\xda'
p11
tp12
Rp13
sS'input'
p14
S''
p15
ss.(dp0
S'data'
p1
(dp2
S'success'
p3
I00
sS'settings'
p4
(lp5
F3.0
asS'normal'
p6
I00
sS'output'
p7
S'hello\nA'
p8
sS'date'
p9
cdatetime
datetime
p10
(S'\x07\xe1\x08\x18\n$*\tJ\xfe'
p11
tp12
Rp13
sS'input'
p14
S''
p15
ss.(dp0
S'data'
p1
(dp2
S'success'
p3
I00
sS'settings'
p4
(lp5
F3.5
asS'normal'
p6
I00
sS'output'
p7
S'hello\nA'
p8
sS'date'
p9
cdatetime
datetime
p10
(S'\x07\xe1\x08\x18\n$+\x00t\x03'
p11
tp12
Rp13
sS'input'
p14
S''
p15
ss.(dp0
S'data'
p1
(dp2
S'success'
p3
I00
sS'settings'
p4
(lp5
F4.0
asS'normal'
p6
I00
sS'output'
p7
S'hello\nA'
p8
sS'date'
p9
cdatetime
datetime
p10
(S'\x07\xe1\x08\x18\n$+\x06\xd2\xda'
p11
tp12
Rp13
sS'input'
p14
S''
p15
ss.(dp0
S'data'
p1
(dp2
S'success'
p3
I00
sS'settings'
p4
(lp5
F4.5
asS'normal'
p6
I00
sS'output'
p7
S'hello\nA'
p8
sS'date'
p9
cdatetime
datetime
p10
(S'\x07\xe1\x08\x18\n$+\x0c\xcf\xdb'
p11
tp12
Rp13
sS'input'
p14
S''
p15
ss.(dp0
S'data'
p1
(dp2
S'success'
p3
I00
sS'settings'
p4
(lp5
F5.0
asS'normal'
p6
I00
sS'output'
p7
S'hello\nA'
p8
sS'date'
p9
cdatetime
datetime
p10
(S'\x07\xe1\x08\x18\n$,\x04\x0b\xf0'
p11
tp12
Rp13
sS'input'
p14
S''
p15
ss.(dp0
S'data'
p1
(dp2
S'success'
p3
I00
sS'settings'
p4
(lp5
F5.5
asS'normal'
p6
I00
sS'output'
p7
S'hello\nA'
p8
sS'date'
p9
cdatetime
datetime
p10
(S'\x07\xe1\x08\x18\n$,\nc\x8a'
p11
tp12
Rp13
sS'input'
p14
S''
p15
ss.(dp0
S'data'
p1
(dp2
S'success'
p3
I00
sS'settings'
p4
(lp5
F6.0
asS'normal'
p6
I00
sS'output'
p7
S'hello\nA'
p8
sS'date'
p9
cdatetime
datetime
p10
(S'\x07\xe1\x08\x18\n$-\x01lm'
p11
tp12
Rp13
sS'input'
p14
S''
p15
ss.(dp0
S'data'
p1
(dp2
S'success'
p3
I00
sS'settings'
p4
(lp5
F6.5
asS'normal'
p6
I00
sS'output'
p7
S'hello\nA'
p8
sS'date'
p9
cdatetime
datetime
p10
(S'\x07\xe1\x08\x18\n$-\x07\xe5\xf5'
p11
tp12
Rp13
sS'input'
p14
S''
p15
ss.(dp0
S'data'
p1
(dp2
S'success'
p3
I00
sS'settings'
p4
(lp5
F7.0
asS'normal'
p6
I00
sS'output'
p7
S'hello\nA'
p8
sS'date'
p9
cdatetime
datetime
p10
(S'\x07\xe1\x08\x18\n$-\x0el\x9f'
p11
tp12
Rp13
sS'input'
p14
S''
p15
ss.(dp0
S'data'
p1
(dp2
S'success'
p3
I00
sS'settings'
p4
(lp5
F7.5
asS'normal'
p6
I00
sS'output'
p7
S'hello\nA'
p8
sS'date'
p9
cdatetime
datetime
p10
(S'\x07\xe1\x08\x18\n$.\x05x\xa3'
p11
tp12
Rp13
sS'input'
p14
S''
p15
ss.(dp0
S'data'
p1
(dp2
S'success'
p3
I00
sS'settings'
p4
(lp5
F8.0
asS'normal'
p6
I00
sS'output'
p7
S'hello\nA'
p8
sS'date'
p9
cdatetime
datetime
p10
(S'\x07\xe1\x08\x18\n$.\x0b\xbd\n'
p11
tp12
Rp13
sS'input'
p14
S''
p15
ss.(dp0
S'data'
p1
(dp2
S'success'
p3
I00
sS'settings'
p4
(lp5
F8.5
asS'normal'
p6
I00
sS'output'
p7
S'hello\nA'
p8
sS'date'
p9
cdatetime
datetime
p10
(S'\x07\xe1\x08\x18\n$/\x035\x16'
p11
tp12
Rp13
sS'input'
p14
S''
p15
ss.(dp0
S'data'
p1
(dp2
S'success'
p3
I00
sS'settings'
p4
(lp5
F9.0
asS'normal'
p6
I00
sS'output'
p7
S'\x08\x00hello\nA'
p8
sS'date'
p9
cdatetime
datetime
p10
(S'\x07\xe1\x08\x18\n$/\t\x97M'
p11
tp12
Rp13
sS'input'
p14
S''
p15
ss.(dp0
S'data'
p1
(dp2
S'success'
p3
I00
sS'settings'
p4
(lp5
F9.5
asS'normal'
p6
I00
sS'output'
p7
S'hello\nA'
p8
sS'date'
p9
cdatetime
datetime
p10
(S'\x07\xe1\x08\x18\n$0\x00\xafR'
p11
tp12
Rp13
sS'input'
p14
S''
p15
ss.(dp0
S'data'
p1
(dp2
S'success'
p3
I00
sS'settings'
p4
(lp5
F10.0
asS'normal'
p6
I00
sS'output'
p7
S'hello\nA'
p8
sS'date'
p9
cdatetime
datetime
p10
(S'\x07\xe1\x08\x18\n$0\x06\xf8\x11'
p11
tp12
Rp13
sS'input'
p14
S''
p15
ss.(dp0
S'data'
p1
(dp2
S'success'
p3
I00
sS'settings'
p4
(lp5
F10.5
asS'normal'
p6
I00
sS'output'
p7
S'hello\nA'
p8
sS'date'
p9
cdatetime
datetime
p10
(S'\x07\xe1\x08\x18\n$0\r;\x08'
p11
tp12
Rp13
sS'input'
p14
S''
p15
ss.(dp0
S'data'
p1
(dp2
S'success'
p3
I00
sS'settings'
p4
(lp5
F11.0
asS'normal'
p6
I00
sS'output'
p7
S'hello\nA'
p8
sS'date'
p9
cdatetime
datetime
p10
(S'\x07\xe1\x08\x18\n$1\x04X\x98'
p11
tp12
Rp13
sS'input'
p14
S''
p15
ss.(dp0
S'data'
p1
(dp2
S'success'
p3
I00
sS'settings'
p4
(lp5
F11.5
asS'normal'
p6
I00
sS'output'
p7
S'hello\nA'
p8
sS'date'
p9
cdatetime
datetime
p10
(S'\x07\xe1\x08\x18\n$1\n\xb6\x9b'
p11
tp12
Rp13
sS'input'
p14
S''
p15
ss.(dp0
S'data'
p1
(dp2
S'success'
p3
I00
sS'settings'
p4
(lp5
F12.0
asS'normal'
p6
I00
sS'output'
p7
S'hello\nA'
p8
sS'date'
p9
cdatetime
datetime
p10
(S'\x07\xe1\x08\x18\n$2\x01\xd2\xd5'
p11
tp12
Rp13
sS'input'
p14
S''
p15
ss.(dp0
S'data'
p1
(dp2
S'success'
p3
I00
sS'settings'
p4
(lp5
F12.5
asS'normal'
p6
I00
sS'output'
p7
S'hello\nA'
p8
sS'date'
p9
cdatetime
datetime
p10
(S'\x07\xe1\x08\x18\n$2\x08,0'
p11
tp12
Rp13
sS'input'
p14
S''
p15
ss.(dp0
S'data'
p1
(dp2
S'success'
p3
I00
sS'settings'
p4
(lp5
F13.0
asS'normal'
p6
I00
sS'output'
p7
S'hello\nA'
p8
sS'date'
p9
cdatetime
datetime
p10
(S'\x07\xe1\x08\x18\n$2\x0e\x83\xbd'
p11
tp12
Rp13
sS'input'
p14
S''
p15
ss.(dp0
S'data'
p1
(dp2
S'success'
p3
I00
sS'settings'
p4
(lp5
F13.5
asS'normal'
p6
I00
sS'output'
p7
S'hello\nA'
p8
sS'date'
p9
cdatetime
datetime
p10
(S'\x07\xe1\x08\x18\n$3\x05\xa0\x8c'
p11
tp12
Rp13
sS'input'
p14
S''
p15
ss.(dp0
S'data'
p1
(dp2
S'success'
p3
I00
sS'settings'
p4
(lp5
F14.0
asS'normal'
p6
I00
sS'output'
p7
S'hello\nA'
p8
sS'date'
p9
cdatetime
datetime
p10
(S'\x07\xe1\x08\x18\n$3\x0c\x0c\x84'
p11
tp12
Rp13
sS'input'
p14
S''
p15
ss.(dp0
S'data'
p1
(dp2
S'success'
p3
I00
sS'settings'
p4
(lp5
F14.5
asS'normal'
p6
I00
sS'output'
p7
S'hello\nA\x00\nhello\nA'
p8
sS'date'
p9
cdatetime
datetime
p10
(S'\x07\xe1\x08\x18\n$4\x039\xc5'
p11
tp12
Rp13
sS'input'
p14
S''
p15
ss.(dp0
S'data'
p1
(dp2
S'success'
p3
I00
sS'settings'
p4
(lp5
F15.0
asS'normal'
p6
I00
sS'output'
p7
S'hello\nA'
p8
sS'date'
p9
cdatetime
datetime
p10
(S'\x07\xe1\x08\x18\n$4\t\x9dn'
p11
tp12
Rp13
sS'input'
p14
S''
p15
ss.(dp0
S'data'
p1
(dp2
S'success'
p3
I00
sS'settings'
p4
(lp5
F15.5
asS'normal'
p6
I00
sS'output'
p7
S'hello\nA'
p8
sS'date'
p9
cdatetime
datetime
p10
(S'\x07\xe1\x08\x18\n$5\x00\xd5E'
p11
tp12
Rp13
sS'input'
p14
S''
p15
ss.(dp0
S'data'
p1
(dp2
S'success'
p3
I00
sS'settings'
p4
(lp5
F16.0
asS'normal'
p6
I00
sS'output'
p7
S'hello\nA'
p8
sS'date'
p9
cdatetime
datetime
p10
(S'\x07\xe1\x08\x18\n$5\x07K~'
p11
tp12
Rp13
sS'input'
p14
S''
p15
ss.(dp0
S'data'
p1
(dp2
S'success'
p3
I00
sS'settings'
p4
(lp5
F16.5
asS'normal'
p6
I00
sS'output'
p7
S'hello\nA'
p8
sS'date'
p9
cdatetime
datetime
p10
(S'\x07\xe1\x08\x18\n$5\r\xcbX'
p11
tp12
Rp13
sS'input'
p14
S''
p15
ss.(dp0
S'data'
p1
(dp2
S'success'
p3
I00
sS'settings'
p4
(lp5
F17.0
asS'normal'
p6
I00
sS'output'
p7
S'hello\nA'
p8
sS'date'
p9
cdatetime
datetime
p10
(S'\x07\xe1\x08\x18\n$6\x05\x01\x18'
p11
tp12
Rp13
sS'input'
p14
S''
p15
ss.(dp0
S'data'
p1
(dp2
S'success'
p3
I00
sS'settings'
p4
(lp5
F17.5
asS'normal'
p6
I00
sS'output'
p7
S'hello\nA'
p8
sS'date'
p9
cdatetime
datetime
p10
(S'\x07\xe1\x08\x18\n$6\x0bv\x8d'
p11
tp12
Rp13
sS'input'
p14
S''
p15
ss.(dp0
S'data'
p1
(dp2
S'success'
p3
I00
sS'settings'
p4
(lp5
F18.0
asS'normal'
p6
I00
sS'output'
p7
S'hello\nA'
p8
sS'date'
p9
cdatetime
datetime
p10
(S'\x07\xe1\x08\x18\n$7\x02\xb5\x11'
p11
tp12
Rp13
sS'input'
p14
S''
p15
ss.(dp0
S'data'
p1
(dp2
S'success'
p3
I00
sS'settings'
p4
(lp5
F18.5
asS'normal'
p6
I00
sS'output'
p7
S'hello\nA'
p8
sS'date'
p9
cdatetime
datetime
p10
(S'\x07\xe1\x08\x18\n$7\tI\x01'
p11
tp12
Rp13
sS'input'
p14
S''
p15
ss.(dp0
S'data'
p1
(dp2
S'success'
p3
I00
sS'settings'
p4
(lp5
F19.0
asS'normal'
p6
I00
sS'output'
p7
S'hello\nA'
p8
sS'date'
p9
cdatetime
datetime
p10
(S'\x07\xe1\x08\x18\n$8\x00\x97\x07'
p11
tp12
Rp13
sS'input'
p14
S''
p15
ss.(dp0
S'data'
p1
(dp2
S'success'
p3
I00
sS'settings'
p4
(lp5
F19.5
asS'normal'
p6
I00
sS'output'
p7
S'hello\nA'
p8
sS'date'
p9
cdatetime
datetime
p10
(S'\x07\xe1\x08\x18\n$8\x07&\x86'
p11
tp12
Rp13
sS'input'
p14
S''
p15
ss.(dp0
S'data'
p1
(dp2
S'success'
p3
I00
sS'settings'
p4
(lp5
F20.0
asS'normal'
p6
I00
sS'output'
p7
S'hello\nA'
p8
sS'date'
p9
cdatetime
datetime
p10
(S'\x07\xe1\x08\x18\n$8\r\xabV'
p11
tp12
Rp13
sS'input'
p14
S''
p15
ss.(dp0
S'data'
p1
(dp2
S'success'
p3
I00
sS'settings'
p4
(lp5
F20.5
asS'normal'
p6
I00
sS'output'
p7
S'hello\nA'
p8
sS'date'
p9
cdatetime
datetime
p10
(S'\x07\xe1\x08\x18\n$9\x04\xda\x97'
p11
tp12
Rp13
sS'input'
p14
S''
p15
ss.(dp0
S'data'
p1
(dp2
S'success'
p3
I00
sS'settings'
p4
(lp5
F21.0
asS'normal'
p6
I00
sS'output'
p7
S'hello\nA'
p8
sS'date'
p9
cdatetime
datetime
p10
(S'\x07\xe1\x08\x18\n$9\x0bS<'
p11
tp12
Rp13
sS'input'
p14
S''
p15
ss.(dp0
S'data'
p1
(dp2
S'success'
p3
I00
sS'settings'
p4
(lp5
F21.5
asS'normal'
p6
I00
sS'output'
p7
S'hello\nA'
p8
sS'date'
p9
cdatetime
datetime
p10
(S'\x07\xe1\x08\x18\n$:\x02\x94~'
p11
tp12
Rp13
sS'input'
p14
S''
p15
ss.(dp0
S'data'
p1
(dp2
S'success'
p3
I00
sS'settings'
p4
(lp5
F22.0
asS'normal'
p6
I00
sS'output'
p7
S'hello\nA'
p8
sS'date'
p9
cdatetime
datetime
p10
(S'\x07\xe1\x08\x18\n$:\t\x17\x9f'
p11
tp12
Rp13
sS'input'
p14
S''
p15
ss.(dp0
S'data'
p1
(dp2
S'success'
p3
I00
sS'settings'
p4
(lp5
F22.5
asS'normal'
p6
I00
sS'output'
p7
S'hello\nA'
p8
sS'date'
p9
cdatetime
datetime
p10
(S'\x07\xe1\x08\x18\n$;\x00\\\x93'
p11
tp12
Rp13
sS'input'
p14
S''
p15
ss.(dp0
S'data'
p1
(dp2
S'success'
p3
I00
sS'settings'
p4
(lp5
F23.0
asS'normal'
p6
I00
sS'output'
p7
S'hello\nA'
p8
sS'date'
p9
cdatetime
datetime
p10
(S'\x07\xe1\x08\x18\n$;\x06\xe5\xcb'
p11
tp12
Rp13
sS'input'
p14
S''
p15
ss.(dp0
S'data'
p1
(dp2
S'success'
p3
I00
sS'settings'
p4
(lp5
F23.5
asS'normal'
p6
I00
sS'output'
p7
S'hello\nA'
p8
sS'date'
p9
cdatetime
datetime
p10
(S'\x07\xe1\x08\x18\n$;\r\x81\x17'
p11
tp12
Rp13
sS'input'
p14
S''
p15
ss.(dp0
S'data'
p1
(dp2
S'success'
p3
I00
sS'settings'
p4
(lp5
F24.0
asS'normal'
p6
I00
sS'output'
p7
S'hello\nA'
p8
sS'date'
p9
cdatetime
datetime
p10
(S'\x07\xe1\x08\x18\n%\x00\x04\xcb\xb4'
p11
tp12
Rp13
sS'input'
p14
S''
p15
ss.(dp0
S'data'
p1
(dp2
S'success'
p3
I00
sS'settings'
p4
(lp5
F24.5
asS'normal'
p6
I00
sS'output'
p7
S'hello\nA'
p8
sS'date'
p9
cdatetime
datetime
p10
(S'\x07\xe1\x08\x18\n%\x00\x0bN\xb2'
p11
tp12
Rp13
sS'input'
p14
S''
p15
ss.(dp0
S'data'
p1
(dp2
S'success'
p3
I00
sS'settings'
p4
(lp5
F25.0
asS'normal'
p6
I00
sS'output'
p7
S'hello\nA'
p8
sS'date'
p9
cdatetime
datetime
p10
(S'\x07\xe1\x08\x18\n%\x01\x02\xa6!'
p11
tp12
Rp13
sS'input'
p14
S''
p15
ss.(dp0
S'data'
p1
(dp2
S'success'
p3
I00
sS'settings'
p4
(lp5
F25.5
asS'normal'
p6
I00
sS'output'
p7
S'hello\nA'
p8
sS'date'
p9
cdatetime
datetime
p10
(S'\x07\xe1\x08\x18\n%\x01\t?c'
p11
tp12
Rp13
sS'input'
p14
S''
p15
ss.(dp0
S'data'
p1
(dp2
S'success'
p3
I00
sS'settings'
p4
(lp5
F26.0
asS'normal'
p6
I00
sS'output'
p7
S'hello\nA'
p8
sS'date'
p9
cdatetime
datetime
p10
(S'\x07\xe1\x08\x18\n%\x02\x00\x98\xe3'
p11
tp12
Rp13
sS'input'
p14
S''
p15
ss.(dp0
S'data'
p1
(dp2
S'success'
p3
I00
sS'settings'
p4
(lp5
F26.5
asS'normal'
p6
I00
sS'output'
p7
S'hello\nA'
p8
sS'date'
p9
cdatetime
datetime
p10
(S'\x07\xe1\x08\x18\n%\x02\x06\xe4\x91'
p11
tp12
Rp13
sS'input'
p14
S''
p15
ss.(dp0
S'data'
p1
(dp2
S'success'
p3
I01
sS'settings'
p4
(lp5
F27.0
asS'normal'
p6
I00
sS'output'
p7
S'hello\nA1234'
p8
sS'date'
p9
cdatetime
datetime
p10
(S'\x07\xe1\x08\x18\n%\x02\rk\x96'
p11
tp12
Rp13
sS'input'
p14
S''
p15
ss.(dp0
S'data'
p1
(dp2
S'success'
p3
I01
sS'settings'
p4
(lp5
F27.5
asS'normal'
p6
I00
sS'output'
p7
S'hello\nA1234'
p8
sS'date'
p9
cdatetime
datetime
p10
(S'\x07\xe1\x08\x18\n%\x03\x04\xc2~'
p11
tp12
Rp13
sS'input'
p14
S''
p15
ss.(dp0
S'data'
p1
(dp2
S'success'
p3
I01
sS'settings'
p4
(lp5
F28.0
asS'normal'
p6
I00
sS'output'
p7
S'hello\nA1234'
p8
sS'date'
p9
cdatetime
datetime
p10
(S"\x07\xe1\x08\x18\n%\x03\x0bf'"
p11
tp12
Rp13
sS'input'
p14
S''
p15
ss.(dp0
S'data'
p1
(dp2
S'success'
p3
I01
sS'settings'
p4
(lp5
F28.5
asS'normal'
p6
I00
sS'output'
p7
S'hello\nA1234'
p8
sS'date'
p9
cdatetime
datetime
p10
(S'\x07\xe1\x08\x18\n%\x04\x02\x84\xfe'
p11
tp12
Rp13
sS'input'
p14
S''
p15
ss.(dp0
S'data'
p1
(dp2
S'success'
p3
I00
sS'settings'
p4
(lp5
F29.0
asS'normal'
p6
I00
sS'output'
p7
S'hello\nA'
p8
sS'date'
p9
cdatetime
datetime
p10
(S'\x07\xe1\x08\x18\n%\x04\t)\xb7'
p11
tp12
Rp13
sS'input'
p14
S''
p15
ss.(dp0
S'data'
p1
(dp2
S'success'
p3
I00
sS'settings'
p4
(lp5
F29.5
asS'normal'
p6
I00
sS'output'
p7
S'hello\nA'
p8
sS'date'
p9
cdatetime
datetime
p10
(S'\x07\xe1\x08\x18\n%\x05\x00\x87\xd2'
p11
tp12
Rp13
sS'input'
p14
S''
p15
ss.(dp0
S'data'
p1
(dp2
S'success'
p3
I00
sS'settings'
p4
(lp5
F30.0
asS'normal'
p6
I00
sS'output'
p7
S'hello\nA'
p8
sS'date'
p9
cdatetime
datetime
p10
(S'\x07\xe1\x08\x18\n%\x05\x07%I'
p11
tp12
Rp13
sS'input'
p14
S''
p15
ss.(dp0
S'data'
p1
(dp2
S'success'
p3
I00
sS'settings'
p4
(lp5
F-30.0
asS'normal'
p6
I00
sS'output'
p7
S'hello\nA'
p8
sS'date'
p9
cdatetime
datetime
p10
(S'\x07\xe1\x08\x18\n%\x05\r\xdd\x97'
p11
tp12
Rp13
sS'input'
p14
S''
p15
ss.(dp0
S'data'
p1
(dp2
S'success'
p3
I00
sS'settings'
p4
(lp5
F-29.5
asS'normal'
p6
I00
sS'output'
p7
S'hello\nA'
p8
sS'date'
p9
cdatetime
datetime
p10
(S'\x07\xe1\x08\x18\n%\x06\x05F\xf9'
p11
tp12
Rp13
sS'input'
p14
S''
p15
ss.(dp0
S'data'
p1
(dp2
S'success'
p3
I00
sS'settings'
p4
(lp5
F-29.0
asS'normal'
p6
I00
sS'output'
p7
S'hello\nA'
p8
sS'date'
p9
cdatetime
datetime
p10
(S'\x07\xe1\x08\x18\n%\x06\x0bP\xcd'
p11
tp12
Rp13
sS'input'
p14
S''
p15
ss.(dp0
S'data'
p1
(dp2
S'success'
p3
I00
sS'settings'
p4
(lp5
F-28.5
asS'normal'
p6
I00
sS'output'
p7
S'hello\nA'
p8
sS'date'
p9
cdatetime
datetime
p10
(S'\x07\xe1\x08\x18\n%\x07\x02\x08\xc1'
p11
tp12
Rp13
sS'input'
p14
S''
p15
ss.(dp0
S'data'
p1
(dp2
S'success'
p3
I00
sS'settings'
p4
(lp5
F-28.0
asS'normal'
p6
I00
sS'output'
p7
S'hello\nA'
p8
sS'date'
p9
cdatetime
datetime
p10
(S'\x07\xe1\x08\x18\n%\x07\x08\x01\xe8'
p11
tp12
Rp13
sS'input'
p14
S''
p15
ss.(dp0
S'data'
p1
(dp2
S'success'
p3
I00
sS'settings'
p4
(lp5
F-27.5
asS'normal'
p6
I00
sS'output'
p7
S'hello\nA'
p8
sS'date'
p9
cdatetime
datetime
p10
(S'\x07\xe1\x08\x18\n%\x07\r\xf0_'
p11
tp12
Rp13
sS'input'
p14
S''
p15
ss.(dp0
S'data'
p1
(dp2
S'success'
p3
I00
sS'settings'
p4
(lp5
F-27.0
asS'normal'
p6
I00
sS'output'
p7
S'hello\nA'
p8
sS'date'
p9
cdatetime
datetime
p10
(S'\x07\xe1\x08\x18\n%\x08\x04\x7f`'
p11
tp12
Rp13
sS'input'
p14
S''
p15
ss.(dp0
S'data'
p1
(dp2
S'success'
p3
I00
sS'settings'
p4
(lp5
F-26.5
asS'normal'
p6
I00
sS'output'
p7
S'hello\nA'
p8
sS'date'
p9
cdatetime
datetime
p10
(S'\x07\xe1\x08\x18\n%\x08\n\x89q'
p11
tp12
Rp13
sS'input'
p14
S''
p15
ss.(dp0
S'data'
p1
(dp2
S'success'
p3
I00
sS'settings'
p4
(lp5
F-26.0
asS'normal'
p6
I00
sS'output'
p7
S'hello\nA'
p8
sS'date'
p9
cdatetime
datetime
p10
(S'\x07\xe1\x08\x18\n%\t\x01Q\xf3'
p11
tp12
Rp13
sS'input'
p14
S''
p15
ss.(dp0
S'data'
p1
(dp2
S'success'
p3
I00
sS'settings'
p4
(lp5
F-25.5
asS'normal'
p6
I00
sS'output'
p7
S'hello\nA'
p8
sS'date'
p9
cdatetime
datetime
p10
(S'\x07\xe1\x08\x18\n%\t\x07I\xc1'
p11
tp12
Rp13
sS'input'
p14
S''
p15
ss.(dp0
S'data'
p1
(dp2
S'success'
p3
I00
sS'settings'
p4
(lp5
F-25.0
asS'normal'
p6
I00
sS'output'
p7
S'hello\nA'
p8
sS'date'
p9
cdatetime
datetime
p10
(S'\x07\xe1\x08\x18\n%\t\rN\x7f'
p11
tp12
Rp13
sS'input'
p14
S''
p15
ss.(dp0
S'data'
p1
(dp2
S'success'
p3
I00
sS'settings'
p4
(lp5
F-24.5
asS'normal'
p6
I00
sS'output'
p7
S'hello\nA'
p8
sS'date'
p9
cdatetime
datetime
p10
(S'\x07\xe1\x08\x18\n%\n\x03\xea\xf6'
p11
tp12
Rp13
sS'input'
p14
S''
p15
ss.(dp0
S'data'
p1
(dp2
S'success'
p3
I00
sS'settings'
p4
(lp5
F-24.0
asS'normal'
p6
I00
sS'output'
p7
S'hello\nA'
p8
sS'date'
p9
cdatetime
datetime
p10
(S'\x07\xe1\x08\x18\n%\n\t\xe5\xfa'
p11
tp12
Rp13
sS'input'
p14
S''
p15
ss.(dp0
S'data'
p1
(dp2
S'success'
p3
I00
sS'settings'
p4
(lp5
F-23.5
asS'normal'
p6
I00
sS'output'
p7
S'hello\nA'
p8
sS'date'
p9
cdatetime
datetime
p10
(S'\x07\xe1\x08\x18\n%\x0b\x00\x9a\xa3'
p11
tp12
Rp13
sS'input'
p14
S''
p15
ss.(dp0
S'data'
p1
(dp2
S'success'
p3
I00
sS'settings'
p4
(lp5
F-23.0
asS'normal'
p6
I00
sS'output'
p7
S'hello\nA'
p8
sS'date'
p9
cdatetime
datetime
p10
(S'\x07\xe1\x08\x18\n%\x0b\x06\x99\xb3'
p11
tp12
Rp13
sS'input'
p14
S''
p15
ss.(dp0
S'data'
p1
(dp2
S'success'
p3
I00
sS'settings'
p4
(lp5
F-22.5
asS'normal'
p6
I00
sS'output'
p7
S'hello\nA'
p8
sS'date'
p9
cdatetime
datetime
p10
(S'\x07\xe1\x08\x18\n%\x0b\x0c\x86\xa7'
p11
tp12
Rp13
sS'input'
p14
S''
p15
ss.(dp0
S'data'
p1
(dp2
S'success'
p3
I00
sS'settings'
p4
(lp5
F-22.0
asS'normal'
p6
I00
sS'output'
p7
S'hello\nA'
p8
sS'date'
p9
cdatetime
datetime
p10
(S'\x07\xe1\x08\x18\n%\x0c\x03H\xd3'
p11
tp12
Rp13
sS'input'
p14
S''
p15
ss.(dp0
S'data'
p1
(dp2
S'success'
p3
I00
sS'settings'
p4
(lp5
F-21.5
asS'normal'
p6
I00
sS'output'
p7
S'hello\nA'
p8
sS'date'
p9
cdatetime
datetime
p10
(S'\x07\xe1\x08\x18\n%\x0c\t^\x1c'
p11
tp12
Rp13
sS'input'
p14
S''
p15
ss.(dp0
S'data'
p1
(dp2
S'success'
p3
I00
sS'settings'
p4
(lp5
F-21.0
asS'normal'
p6
I00
sS'output'
p7
S'hello\nA'
p8
sS'date'
p9
cdatetime
datetime
p10
(S'\x07\xe1\x08\x18\n%\r\x00,#'
p11
tp12
Rp13
sS'input'
p14
S''
p15
ss.(dp0
S'data'
p1
(dp2
S'success'
p3
I00
sS'settings'
p4
(lp5
F-20.5
asS'normal'
p6
I00
sS'output'
p7
S'hello\nA'
p8
sS'date'
p9
cdatetime
datetime
p10
(S'\x07\xe1\x08\x18\n%\r\x062\xa3'
p11
tp12
Rp13
sS'input'
p14
S''
p15
ss.(dp0
S'data'
p1
(dp2
S'success'
p3
I00
sS'settings'
p4
(lp5
F-20.0
asS'normal'
p6
I00
sS'output'
p7
S'hello\nA'
p8
sS'date'
p9
cdatetime
datetime
p10
(S'\x07\xe1\x08\x18\n%\r\x0cBP'
p11
tp12
Rp13
sS'input'
p14
S''
p15
ss.(dp0
S'data'
p1
(dp2
S'success'
p3
I00
sS'settings'
p4
(lp5
F-19.5
asS'normal'
p6
I00
sS'output'
p7
S'hello\nA'
p8
sS'date'
p9
cdatetime
datetime
p10
(S'\x07\xe1\x08\x18\n%\x0e\x02\xf8\xf2'
p11
tp12
Rp13
sS'input'
p14
S''
p15
ss.(dp0
S'data'
p1
(dp2
S'success'
p3
I00
sS'settings'
p4
(lp5
F-19.0
asS'normal'
p6
I00
sS'output'
p7
S'hello\nA'
p8
sS'date'
p9
cdatetime
datetime
p10
(S'\x07\xe1\x08\x18\n%\x0e\t\x021'
p11
tp12
Rp13
sS'input'
p14
S''
p15
ss.(dp0
S'data'
p1
(dp2
S'success'
p3
I00
sS'settings'
p4
(lp5
F-18.5
asS'normal'
p6
I00
sS'output'
p7
S'hello\nA'
p8
sS'date'
p9
cdatetime
datetime
p10
(S'\x07\xe1\x08\x18\n%\x0e\x0f\x00\xcf'
p11
tp12
Rp13
sS'input'
p14
S''
p15
ss.(dp0
S'data'
p1
(dp2
S'success'
p3
I00
sS'settings'
p4
(lp5
F-18.0
asS'normal'
p6
I00
sS'output'
p7
S'hello\nA'
p8
sS'date'
p9
cdatetime
datetime
p10
(S'\x07\xe1\x08\x18\n%\x0f\x05\xc3\xd7'
p11
tp12
Rp13
sS'input'
p14
S''
p15
ss.(dp0
S'data'
p1
(dp2
S'success'
p3
I00
sS'settings'
p4
(lp5
F-17.5
asS'normal'
p6
I00
sS'output'
p7
S'hello\nA'
p8
sS'date'
p9
cdatetime
datetime
p10
(S'\x07\xe1\x08\x18\n%\x0f\x0b\xc29'
p11
tp12
Rp13
sS'input'
p14
S''
p15
ss.(dp0
S'data'
p1
(dp2
S'success'
p3
I00
sS'settings'
p4
(lp5
F-17.0
asS'normal'
p6
I00
sS'output'
p7
S'hello\nA'
p8
sS'date'
p9
cdatetime
datetime
p10
(S'\x07\xe1\x08\x18\n%\x10\x02\x8d\x8c'
p11
tp12
Rp13
sS'input'
p14
S''
p15
ss.(dp0
S'data'
p1
(dp2
S'success'
p3
I00
sS'settings'
p4
(lp5
F-16.5
asS'normal'
p6
I00
sS'output'
p7
S'hello\nA'
p8
sS'date'
p9
cdatetime
datetime
p10
(S'\x07\xe1\x08\x18\n%\x10\x08\x9b\xbc'
p11
tp12
Rp13
sS'input'
p14
S''
p15
ss.(dp0
S'data'
p1
(dp2
S'success'
p3
I00
sS'settings'
p4
(lp5
F-16.0
asS'normal'
p6
I00
sS'output'
p7
S'hello\nA'
p8
sS'date'
p9
cdatetime
datetime
p10
(S'\x07\xe1\x08\x18\n%\x10\x0e?\xc4'
p11
tp12
Rp13
sS'input'
p14
S''
p15
ss.(dp0
S'data'
p1
(dp2
S'success'
p3
I00
sS'settings'
p4
(lp5
F-15.5
asS'normal'
p6
I00
sS'output'
p7
S'hello\nA'
p8
sS'date'
p9
cdatetime
datetime
p10
(S'\x07\xe1\x08\x18\n%\x11\x04\xf4\x9c'
p11
tp12
Rp13
sS'input'
p14
S''
p15
ss.(dp0
S'data'
p1
(dp2
S'success'
p3
I00
sS'settings'
p4
(lp5
F-15.0
asS'normal'
p6
I00
sS'output'
p7
S'hello\nA'
p8
sS'date'
p9
cdatetime
datetime
p10
(S'\x07\xe1\x08\x18\n%\x11\n\xea7'
p11
tp12
Rp13
sS'input'
p14
S''
p15
ss.(dp0
S'data'
p1
(dp2
S'success'
p3
I00
sS'settings'
p4
(lp5
F-14.5
asS'normal'
p6
I00
sS'output'
p7
S'hello\nA'
p8
sS'date'
p9
cdatetime
datetime
p10
(S'\x07\xe1\x08\x18\n%\x12\x01\xac\x9c'
p11
tp12
Rp13
sS'input'
p14
S''
p15
ss.(dp0
S'data'
p1
(dp2
S'success'
p3
I00
sS'settings'
p4
(lp5
F-14.0
asS'normal'
p6
I00
sS'output'
p7
S'hello\nA'
p8
sS'date'
p9
cdatetime
datetime
p10
(S'\x07\xe1\x08\x18\n%\x12\x07\xb3\xdc'
p11
tp12
Rp13
sS'input'
p14
S''
p15
ss.(dp0
S'data'
p1
(dp2
S'success'
p3
I00
sS'settings'
p4
(lp5
F-13.5
asS'normal'
p6
I00
sS'output'
p7
S'hello\nA'
p8
sS'date'
p9
cdatetime
datetime
p10
(S'\x07\xe1\x08\x18\n%\x12\r\xba\xa9'
p11
tp12
Rp13
sS'input'
p14
S''
p15
ss.(dp0
S'data'
p1
(dp2
S'success'
p3
I00
sS'settings'
p4
(lp5
F-13.0
asS'normal'
p6
I00
sS'output'
p7
S'hello\nA'
p8
sS'date'
p9
cdatetime
datetime
p10
(S'\x07\xe1\x08\x18\n%\x13\x04g\x13'
p11
tp12
Rp13
sS'input'
p14
S''
p15
ss.(dp0
S'data'
p1
(dp2
S'success'
p3
I00
sS'settings'
p4
(lp5
F-12.5
asS'normal'
p6
I00
sS'output'
p7
S'hello\nA'
p8
sS'date'
p9
cdatetime
datetime
p10
(S'\x07\xe1\x08\x18\n%\x13\noW'
p11
tp12
Rp13
sS'input'
p14
S''
p15
ss.(dp0
S'data'
p1
(dp2
S'success'
p3
I01
sS'settings'
p4
(lp5
F-12.0
asS'normal'
p6
I00
sS'output'
p7
S'hello\nA1234'
p8
sS'date'
p9
cdatetime
datetime
p10
(S'\x07\xe1\x08\x18\n%\x14\x01@M'
p11
tp12
Rp13
sS'input'
p14
S''
p15
ss.(dp0
S'data'
p1
(dp2
S'success'
p3
I01
sS'settings'
p4
(lp5
F-11.5
asS'normal'
p6
I00
sS'output'
p7
S'hello\nA1234'
p8
sS'date'
p9
cdatetime
datetime
p10
(S'\x07\xe1\x08\x18\n%\x14\x07D\x19'
p11
tp12
Rp13
sS'input'
p14
S''
p15
ss.