(dp0
S'notes'
p1
S''
p2
s.(dp0
S'commands'
p1
(lp2
V['Glitch Module', 'Ext Trigger Offset']
p3
as.(dp0
S'data'
p1
(dp2
S'success'
p3
I01
sS'settings'
p4
(lp5
I0
asS'normal'
p6
I00
sS'output'
p7
S'\x00hello\nA1234'
p8
sS'date'
p9
cdatetime
datetime
p10
(S'\x07\xe1\x08\x19\x0c,"\t\x03\xd9'
p11
tp12
Rp13
sS'input'
p14
S''
p15
ss.(dp0
S'data'
p1
(dp2
S'success'
p3
I01
sS'settings'
p4
(lp5
I0
asS'normal'
p6
I00
sS'output'
p7
S'hello\nA1234'
p8
sS'date'
p9
cdatetime
datetime
p10
(S'\x07\xe1\x08\x19\x0c,#\x00)\xe9'
p11
tp12
Rp13
sS'input'
p14
S''
p15
ss.(dp0
S'data'
p1
(dp2
S'success'
p3
I01
sS'settings'
p4
(lp5
I0
asS'normal'
p6
I00
sS'output'
p7
S'\x10\x01hello\nA1234'
p8
sS'date'
p9
cdatetime
datetime
p10
(S'\x07\xe1\x08\x19\x0c,#\x06\x18\x95'
p11
tp12
Rp13
sS'input'
p14
S''
p15
ss.(dp0
S'data'
p1
(dp2
S'success'
p3
I01
sS'settings'
p4
(lp5
I0
asS'normal'
p6
I00
sS'output'
p7
S'Q\x00hello\nA1234'
p8
sS'date'
p9
cdatetime
datetime
p10
(S'\x07\xe1\x08\x19\x0c,#\x0c\x19\xbc'
p11
tp12
Rp13
sS'input'
p14
S''
p15
ss.(dp0
S'data'
p1
(dp2
S'success'
p3
I01
sS'settings'
p4
(lp5
I0
asS'normal'
p6
I00
sS'output'
p7
S'hello\nA1234'
p8
sS'date'
p9
cdatetime
datetime
p10
(S'\x07\xe1\x08\x19\x0c,$\x02\xa7\xc9'
p11
tp12
Rp13
sS'input'
p14
S''
p15
ss.(dp0
S'data'
p1
(dp2
S'success'
p3
I01
sS'settings'
p4
(lp5
I0
asS'normal'
p6
I00
sS'output'
p7
S'hello\nA1234'
p8
sS'date'
p9
cdatetime
datetime
p10
(S'\x07\xe1\x08\x19\x0c,$\x08F:'
p11
tp12
Rp13
sS'input'
p14
S''
p15
ss.(dp0
S'data'
p1
(dp2
S'success'
p3
I01
sS'settings'
p4
(lp5
I0
asS'normal'
p6
I00
sS'output'
p7
S'hello\nA1234'
p8
sS'date'
p9
cdatetime
datetime
p10
(S'\x07\xe1\x08\x19\x0c,$\x0e$\xc0'
p11
tp12
Rp13
sS'input'
p14
S''
p15
ss.(dp0
S'data'
p1
(dp2
S'success'
p3
I01
sS'settings'
p4
(lp5
I0
asS'normal'
p6
I00
sS'output'
p7
S'hello\nA1234'
p8
sS'date'
p9
cdatetime
datetime
p10
(S'\x07\xe1\x08\x19\x0c,%\x04\xb6\xb1'
p11
tp12
Rp13
sS'input'
p14
S''
p15
ss.(dp0
S'data'
p1
(dp2
S'success'
p3
I01
sS'settings'
p4
(lp5
I0
asS'normal'
p6
I00
sS'output'
p7
S'hello\nA1234'
p8
sS'date'
p9
cdatetime
datetime
p10
(S'\x07\xe1\x08\x19\x0c,%\n\x9d\x05'
p11
tp12
Rp13
sS'input'
p14
S''
p15
ss.(dp0
S'data'
p1
(dp2
S'success'
p3
I00
sS'settings'
p4
(lp5
I1
asS'normal'
p6
I00
sS'output'
p7
S'hello\nA'
p8
sS'date'
p9
cdatetime
datetime
p10
(S'\x07\xe1\x08\x19\x0c,&\x01G\x80'
p11
tp12
Rp13
sS'input'
p14
S''
p15
ss.(dp0
S'data'
p1
(dp2
S'success'
p3
I00
sS'settings'
p4
(lp5
I1
asS'normal'
p6
I00
sS'output'
p7
S'hello\nA'
p8
sS'date'
p9
cdatetime
datetime
p10
(S'\x07\xe1\x08\x19\x0c,&\x07LX'
p11
tp12
Rp13
sS'input'
p14
S''
p15
ss.(dp0
S'data'
p1
(dp2
S'success'
p3
I00
sS'settings'
p4
(lp5
I1
asS'normal'
p6
I00
sS'output'
p7
S'hello\nA'
p8
sS'date'
p9
cdatetime
datetime
p10
(S'\x07\xe1\x08\x19\x0c,&\r7t'
p11
tp12
Rp13
sS'input'
p14
S''
p15
ss.(dp0
S'data'
p1
(dp2
S'success'
p3
I00
sS'settings'
p4
(lp5
I1
asS'normal'
p6
I00
sS'output'
p7
S'hello\nA'
p8
sS'date'
p9
cdatetime
datetime
p10
(S"\x07\xe1\x08\x19\x0c,'\x03\xd0\xc8"
p11
tp12
Rp13
sS'input'
p14
S''
p15
ss.(dp0
S'data'
p1
(dp2
S'success'
p3
I00
sS'settings'
p4
(lp5
I1
asS'normal'
p6
I00
sS'output'
p7
S'hello\nA'
p8
sS'date'
p9
cdatetime
datetime
p10
(S"\x07\xe1\x08\x19\x0c,'\t\xa2\xc3"
p11
tp12
Rp13
sS'input'
p14
S''
p15
ss.(dp0
S'data'
p1
(dp2
S'success'
p3
I00
sS'settings'
p4
(lp5
I1
asS'normal'
p6
I00
sS'output'
p7
S'hello\nA'
p8
sS'date'
p9
cdatetime
datetime
p10
(S'\x07\xe1\x08\x19\x0c,(\x00E\xbf'
p11
tp12
Rp13
sS'input'
p14
S''
p15
ss.(dp0
S'data'
p1
(dp2
S'success'
p3
I00
sS'settings'
p4
(lp5
I1
asS'normal'
p6
I00
sS'output'
p7
S'hello\nA'
p8
sS'date'
p9
cdatetime
datetime
p10
(S'\x07\xe1\x08\x19\x0c,(\x06\x1bq'
p11
tp12
Rp13
sS'input'
p14
S''
p15
ss.(dp0
S'data'
p1
(dp2
S'success'
p3
I00
sS'settings'
p4
(lp5
I1
asS'normal'
p6
I00
sS'output'
p7
S'hello\nA'
p8
sS'date'
p9
cdatetime
datetime
p10
(S'\x07\xe1\x08\x19\x0c,(\x0c\t\xb8'
p11
tp12
Rp13
sS'input'
p14
S''
p15
ss.(dp0
S'data'
p1
(dp2
S'success'
p3
I00
sS'settings'
p4
(lp5
I1
asS'normal'
p6
I00
sS'output'
p7
S'hello\nA'
p8
sS'date'
p9
cdatetime
datetime
p10
(S'\x07\xe1\x08\x19\x0c,)\x02\x95\x0f'
p11
tp12
Rp13
sS'input'
p14
S''
p15
ss.(dp0
S'data'
p1
(dp2
S'success'
p3
I00
sS'settings'
p4
(lp5
I1
asS'normal'
p6
I00
sS'output'
p7
S'hello\nA'
p8
sS'date'
p9
cdatetime
datetime
p10
(S'\x07\xe1\x08\x19\x0c,)\x082:'
p11
tp12
Rp13
sS'input'
p14
S''
p15
ss.(dp0
S'data'
p1
(dp2
S'success'
p3
I00
sS'settings'
p4
(lp5
I2
asS'normal'
p6
I00
sS'output'
p7
S'hello\nA'
p8
sS'date'
p9
cdatetime
datetime
p10
(S'\x07\xe1\x08\x19\x0c,)\x0e\x1b\xd2'
p11
tp12
Rp13
sS'input'
p14
S''
p15
ss.(dp0
S'data'
p1
(dp2
S'success'
p3
I00
sS'settings'
p4
(lp5
I2
asS'normal'
p6
I00
sS'output'
p7
S'hello\nA'
p8
sS'date'
p9
cdatetime
datetime
p10
(S'\x07\xe1\x08\x19\x0c,*\x04\xd8\x95'
p11
tp12
Rp13
sS'input'
p14
S''
p15
ss.(dp0
S'data'
p1
(dp2
S'success'
p3
I00
sS'settings'
p4
(lp5
I2
asS'normal'
p6
I00
sS'output'
p7
S'hello\nA'
p8
sS'date'
p9
cdatetime
datetime
p10
(S'\x07\xe1\x08\x19\x0c,*\n\xb8\xd7'
p11
tp12
Rp13
sS'input'
p14
S''
p15
ss.(dp0
S'data'
p1
(dp2
S'success'
p3
I00
sS'settings'
p4
(lp5
I2
asS'normal'
p6
I00
sS'output'
p7
S'hello\nA'
p8
sS'date'
p9
cdatetime
datetime
p10
(S'\x07\xe1\x08\x19\x0c,+\x01]C'
p11
tp12
Rp13
sS'input'
p14
S''
p15
ss.(dp0
S'data'
p1
(dp2
S'success'
p3
I00
sS'settings'
p4
(lp5
I2
asS'normal'
p6
I00
sS'output'
p7
S'hello\nA'
p8
sS'date'
p9
cdatetime
datetime
p10
(S'\x07\xe1\x08\x19\x0c,+\x07H\xfd'
p11
tp12
Rp13
sS'input'
p14
S''
p15
ss.(dp0
S'data'
p1
(dp2
S'success'
p3
I00
sS'settings'
p4
(lp5
I2
asS'normal'
p6
I00
sS'output'
p7
S'hello\nA'
p8
sS'date'
p9
cdatetime
datetime
p10
(S'\x07\xe1\x08\x19\x0c,+\r7\xf7'
p11
tp12
Rp13
sS'input'
p14
S''
p15
ss.(dp0
S'data'
p1
(dp2
S'success'
p3
I00
sS'settings'
p4
(lp5
I2
asS'normal'
p6
I00
sS'output'
p7
S'hello\nA'
p8
sS'date'
p9
cdatetime
datetime
p10
(S'\x07\xe1\x08\x19\x0c,,\x03\xc3\xa6'
p11
tp12
Rp13
sS'input'
p14
S''
p15
ss.(dp0
S'data'
p1
(dp2
S'success'
p3
I00
sS'settings'
p4
(lp5
I2
asS'normal'
p6
I00
sS'output'
p7
S'hello\nA'
p8
sS'date'
p9
cdatetime
datetime
p10
(S'\x07\xe1\x08\x19\x0c,,\t\xb2\xb4'
p11
tp12
Rp13
sS'input'
p14
S''
p15
ss.(dp0
S'data'
p1
(dp2
S'success'
p3
I00
sS'settings'
p4
(lp5
I2
asS'normal'
p6
I00
sS'output'
p7
S'hello\nA'
p8
sS'date'
p9
cdatetime
datetime
p10
(S'\x07\xe1\x08\x19\x0c,-\x00^5'
p11
tp12
Rp13
sS'input'
p14
S''
p15
ss.(dp0
S'data'
p1
(dp2
S'success'
p3
I00
sS'settings'
p4
(lp5
I2
asS'normal'
p6
I00
sS'output'
p7
S'hello\nA'
p8
sS'date'
p9
cdatetime
datetime
p10
(S'\x07\xe1\x08\x19\x0c,-\x064a'
p11
tp12
Rp13
sS'input'
p14
S''
p15
ss.(dp0
S'data'
p1
(dp2
S'success'
p3
I00
sS'settings'
p4
(lp5
I3
asS'normal'
p6
I00
sS'output'
p7
S'hello\nA'
p8
sS'date'
p9
cdatetime
datetime
p10
(S'\x07\xe1\x08\x19\x0c,-\x0c\x1c\x06'
p11
tp12
Rp13
sS'input'
p14
S''
p15
ss.(dp0
S'data'
p1
(dp2
S'success'
p3
I00
sS'settings'
p4
(lp5
I3
asS'normal'
p6
I00
sS'output'
p7
S'hello\nA'
p8
sS'date'
p9
cdatetime
datetime
p10
(S'\x07\xe1\x08\x19\x0c,.\x03\r\xe8'
p11
tp12
Rp13
sS'input'
p14
S''
p15
ss.(dp0
S'data'
p1
(dp2
S'success'
p3
I00
sS'settings'
p4
(lp5
I3
asS'normal'
p6
I00
sS'output'
p7
S'hello\nA'
p8
sS'date'
p9
cdatetime
datetime
p10
(S'\x07\xe1\x08\x19\x0c,.\x08\xb8t'
p11
tp12
Rp13
sS'input'
p14
S''
p15
ss.(dp0
S'data'
p1
(dp2
S'success'
p3
I00
sS'settings'
p4
(lp5
I3
asS'normal'
p6
I00
sS'output'
p7
S'hello\nA'
p8
sS'date'
p9
cdatetime
datetime
p10
(S'\x07\xe1\x08\x19\x0c,.\x0e\x8bm'
p11
tp12
Rp13
sS'input'
p14
S''
p15
ss.(dp0
S'data'
p1
(dp2
S'success'
p3
I00
sS'settings'
p4
(lp5
I3
asS'normal'
p6
I00
sS'output'
p7
S'hello\nA'
p8
sS'date'
p9
cdatetime
datetime
p10
(S'\x07\xe1\x08\x19\x0c,/\x05\t\xa4'
p11
tp12
Rp13
sS'input'
p14
S''
p15
ss.(dp0
S'data'
p1
(dp2
S'success'
p3
I00
sS'settings'
p4
(lp5
I3
asS'normal'
p6
I00
sS'output'
p7
S'hello\nA'
p8
sS'date'
p9
cdatetime
datetime
p10
(S'\x07\xe1\x08\x19\x0c,/\n\xed"'
p11
tp12
Rp13
sS'input'
p14
S''
p15
ss.(dp0
S'data'
p1
(dp2
S'success'
p3
I00
sS'settings'
p4
(lp5
I3
asS'normal'
p6
I00
sS'output'
p7
S'hello\nA'
p8
sS'date'
p9
cdatetime
datetime
p10
(S'\x07\xe1\x08\x19\x0c,0\x01\x92T'
p11
tp12
Rp13
sS'input'
p14
S''
p15
ss.(dp0
S'data'
p1
(dp2
S'success'
p3
I00
sS'settings'
p4
(lp5
I3
asS'normal'
p6
I00
sS'output'
p7
S'hello\nA'
p8
sS'date'
p9
cdatetime
datetime
p10
(S'\x07\xe1\x08\x19\x0c,0\x07j\xb0'
p11
tp12
Rp13
sS'input'
p14
S''
p15
ss.(dp0
S'data'
p1
(dp2
S'success'
p3
I00
sS'settings'
p4
(lp5
I3
asS'normal'
p6
I00
sS'output'
p7
S'hello\nA'
p8
sS'date'
p9
cdatetime
datetime
p10
(S'\x07\xe1\x08\x19\x0c,0\rB)'
p11
tp12
Rp13
sS'input'
p14
S''
p15
ss.(dp0
S'data'
p1
(dp2
S'success'
p3
I00
sS'settings'
p4
(lp5
I3
asS'normal'
p6
I00
sS'output'
p7
S'hello\nA'
p8
sS'date'
p9
cdatetime
datetime
p10
(S'\x07\xe1\x08\x19\x0c,1\x03\xdaP'
p11
tp12
Rp13
sS'input'
p14
S''
p15
ss.(dp0
S'data'
p1
(dp2
S'success'
p3
I00
sS'settings'
p4
(lp5
I4
asS'normal'
p6
I00
sS'output'
p7
S'hello\nA'
p8
sS'date'
p9
cdatetime
datetime
p10
(S'\x07\xe1\x08\x19\x0c,1\t\x96)'
p11
tp12
Rp13
sS'input'
p14
S''
p15
ss.(dp0
S'data'
p1
(dp2
S'success'
p3
I00
sS'settings'
p4
(lp5
I4
asS'normal'
p6
I00
sS'output'
p7
S'hello\nA'
p8
sS'date'
p9
cdatetime
datetime
p10
(S'\x07\xe1\x08\x19\x0c,2\x00\x8c\xb7'
p11
tp12
Rp13
sS'input'
p14
S''
p15
ss.(dp0
S'data'
p1
(dp2
S'success'
p3
I00
sS'settings'
p4
(lp5
I4
asS'normal'
p6
I00
sS'output'
p7
S'hello\nA'
p8
sS'date'
p9
cdatetime
datetime
p10
(S'\x07\xe1\x08\x19\x0c,2\x06wD'
p11
tp12
Rp13
sS'input'
p14
S''
p15
ss.(dp0
S'data'
p1
(dp2
S'success'
p3
I00
sS'settings'
p4
(lp5
I4
asS'normal'
p6
I00
sS'output'
p7
S'hello\nA'
p8
sS'date'
p9
cdatetime
datetime
p10
(S'\x07\xe1\x08\x19\x0c,2\x0c_7'
p11
tp12
Rp13
sS'input'
p14
S''
p15
ss.(dp0
S'data'
p1
(dp2
S'success'
p3
I00
sS'settings'
p4
(lp5
I4
asS'normal'
p6
I00
sS'output'
p7
S'hello\nA'
p8
sS'date'
p9
cdatetime
datetime
p10
(S'\x07\xe1\x08\x19\x0c,3\x02\xfbK'
p11
tp12
Rp13
sS'input'
p14
S''
p15
ss.(dp0
S'data'
p1
(dp2
S'success'
p3
I00
sS'settings'
p4
(lp5
I4
asS'normal'
p6
I00
sS'output'
p7
S'hello\nA'
p8
sS'date'
p9
cdatetime
datetime
p10
(S'\x07\xe1\x08\x19\x0c,3\x08\xdd\x89'
p11
tp12
Rp13
sS'input'
p14
S''
p15
ss.(dp0
S'data'
p1
(dp2
S'success'
p3
I00
sS'settings'
p4
(lp5
I4
asS'normal'
p6
I00
sS'output'
p7
S'hello\nA'
p8
sS'date'
p9
cdatetime
datetime
p10
(S'\x07\xe1\x08\x19\x0c,3\x0e\xab\x9d'
p11
tp12
Rp13
sS'input'
p14
S''
p15
ss.(dp0
S'data'
p1
(dp2
S'success'
p3
I00
sS'settings'
p4
(lp5
I4
asS'normal'
p6
I00
sS'output'
p7
S'hello\nA'
p8
sS'date'
p9
cdatetime
datetime
p10
(S'\x07\xe1\x08\x19\x0c,4\x05X\xdf'
p11
tp12
Rp13
sS'input'
p14
S''
p15
ss.(dp0
S'data'
p1
(dp2
S'success'
p3
I00
sS'settings'
p4
(lp5
I4
asS'normal'
p6
I00
sS'output'
p7
S'hello\nA'
p8
sS'date'
p9
cdatetime
datetime
p10
(S'\x07\xe1\x08\x19\x0c,4\x0b3\xe3'
p11
tp12
Rp13
sS'input'
p14
S''
p15
ss.(dp0
S'data'
p1
(dp2
S'success'
p3
I00
sS'settings'
p4
(lp5
I4
asS'normal'
p6
I00
sS'output'
p7
S'hello\nA'
p8
sS'date'
p9
cdatetime
datetime
p10
(S'\x07\xe1\x08\x19\x0c,5\x01\xd33'
p11
tp12
Rp13
sS'input'
p14
S''
p15
ss.(dp0
S'data'
p1
(dp2
S'success'
p3
I00
sS'settings'
p4
(lp5
I5
asS'normal'
p6
I00
sS'output'
p7
S'hello\nA'
p8
sS'date'
p9
cdatetime
datetime
p10
(S'\x07\xe1\x08\x19\x0c,5\x07\xbc\x91'
p11
tp12
Rp13
sS'input'
p14
S''
p15
ss.(dp0
S'data'
p1
(dp2
S'success'
p3
I00
sS'settings'
p4
(lp5
I5
asS'normal'
p6
I00
sS'output'
p7
S'hello\nA'
p8
sS'date'
p9
cdatetime
datetime
p10
(S'\x07\xe1\x08\x19\x0c,5\x0e\x0f\xed'
p11
tp12
Rp13
sS'input'
p14
S''
p15
ss.(dp0
S'data'
p1
(dp2
S'success'
p3
I00
sS'settings'
p4
(lp5
I5
asS'normal'
p6
I00
sS'output'
p7
S'hello\nA'
p8
sS'date'
p9
cdatetime
datetime
p10
(S'\x07\xe1\x08\x19\x0c,6\x04\xae\x14'
p11
tp12
Rp13
sS'input'
p14
S''
p15
ss.(dp0
S'data'
p1
(dp2
S'success'
p3
I00
sS'settings'
p4
(lp5
I5
asS'normal'
p6
I00
sS'output'
p7
S'hello\nA'
p8
sS'date'
p9
cdatetime
datetime
p10
(S'\x07\xe1\x08\x19\x0c,6\n\x9d\x7f'
p11
tp12
Rp13
sS'input'
p14
S''
p15
ss.(dp0
S'data'
p1
(dp2
S'success'
p3
I00
sS'settings'
p4
(lp5
I5
asS'normal'
p6
I00
sS'output'
p7
S'hello\nA'
p8
sS'date'
p9
cdatetime
datetime
p10
(S'\x07\xe1\x08\x19\x0c,7\x01=\x1d'
p11
tp12
Rp13
sS'input'
p14
S''
p15
ss.(dp0
S'data'
p1
(dp2
S'success'
p3
I00
sS'settings'
p4
(lp5
I5
asS'normal'
p6
I00
sS'output'
p7
S'hello\nA'
p8
sS'date'
p9
cdatetime
datetime
p10
(S'\x07\xe1\x08\x19\x0c,7\x07"f'
p11
tp12
Rp13
sS'input'
p14
S''
p15
ss.(dp0
S'data'
p1
(dp2
S'success'
p3
I00
sS'settings'
p4
(lp5
I5
asS'normal'
p6
I00
sS'output'
p7
S'hello\nA'
p8
sS'date'
p9
cdatetime
datetime
p10
(S'\x07\xe1\x08\x19\x0c,7\r\x10\x8b'
p11
tp12
Rp13
sS'input'
p14
S''
p15
ss.(dp0
S'data'
p1
(dp2
S'success'
p3
I00
sS'settings'
p4
(lp5
I5
asS'normal'
p6
I00
sS'output'
p7
S'hello\nA'
p8
sS'date'
p9
cdatetime
datetime
p10
(S'\x07\xe1\x08\x19\x0c,8\x03\xb6a'
p11
tp12
Rp13
sS'input'
p14
S''
p15
ss.(dp0
S'data'
p1
(dp2
S'success'
p3
I00
sS'settings'
p4
(lp5
I5
asS'normal'
p6
I00
sS'output'
p7
S'hello\nA'
p8
sS'date'
p9
cdatetime
datetime
p10
(S'\x07\xe1\x08\x19\x0c,8\t\x87\x17'
p11
tp12
Rp13
sS'input'
p14
S''
p15
ss.(dp0
S'data'
p1
(dp2
S'success'
p3
I00
sS'settings'
p4
(lp5
I5
asS'normal'
p6
I00
sS'output'
p7
S'hello\nA'
p8
sS'date'
p9
cdatetime
datetime
p10
(S'\x07\xe1\x08\x19\x0c,8\x0f(\x11'
p11
tp12
Rp13
sS'input'
p14
S''
p15
ss.(dp0
S'data'
p1
(dp2
S'success'
p3
I01
sS'settings'
p4
(lp5
I6
asS'normal'
p6
I00
sS'output'
p7
S'hello\nA1234'
p8
sS'date'
p9
cdatetime
datetime
p10
(S'\x07\xe1\x08\x19\x0c,9\x05\xe1\x05'
p11
tp12
Rp13
sS'input'
p14
S''
p15
ss.(dp0
S'data'
p1
(dp2
S'success'
p3
I01
sS'settings'
p4
(lp5
I6
asS'normal'
p6
I00
sS'output'
p7
S'hello\nA1234'
p8
sS'date'
p9
cdatetime
datetime
p10
(S'\x07\xe1\x08\x19\x0c,9\x0cHt'
p11
tp12
Rp13
sS'input'
p14
S''
p15
ss.(dp0
S'data'
p1
(dp2
S'success'
p3
I01
sS'settings'
p4
(lp5
I6
asS'normal'
p6
I00
sS'output'
p7
S'hello\nA1234'
p8
sS'date'
p9
cdatetime
datetime
p10
(S'\x07\xe1\x08\x19\x0c,:\x02\xfa\x8e'
p11
tp12
Rp13
sS'input'
p14
S''
p15
ss.(dp0
S'data'
p1
(dp2
S'success'
p3
I01
sS'settings'
p4
(lp5
I6
asS'normal'
p6
I00
sS'output'
p7
S'hello\nA1234'
p8
sS'date'
p9
cdatetime
datetime
p10
(S'\x07\xe1\x08\x19\x0c,:\x08\xf5\xe3'
p11
tp12
Rp13
sS'input'
p14
S''
p15
ss.(dp0
S'data'
p1
(dp2
S'success'
p3
I01
sS'settings'
p4
(lp5
I6
asS'normal'
p6
I00
sS'output'
p7
S'hello\nA1234'
p8
sS'date'
p9
cdatetime
datetime
p10
(S'\x07\xe1\x08\x19\x0c,:\x0e\xe61'
p11
tp12
Rp13
sS'input'
p14
S''
p15
ss.(dp0
S'data'
p1
(dp2
S'success'
p3
I01
sS'settings'
p4
(lp5
I6
asS'normal'
p6
I00
sS'output'
p7
S'hello\nA1234'
p8
sS'date'
p9
cdatetime
datetime
p10
(S'\x07\xe1\x08\x19\x0c,;\x05\x91\xbb'
p11
tp12
Rp13
sS'input'
p14
S''
p15
ss.(dp0
S'data'
p1
(dp2
S'success'
p3
I01
sS'settings'
p4
(lp5
I6
asS'normal'
p6
I00
sS'output'
p7
S'hello\nA1234'
p8
sS'date'
p9
cdatetime
datetime
p10
(S'\x07\xe1\x08\x19\x0c,;\x0b\x8d\x97'
p11
tp12
Rp13
sS'input'
p14
S''
p15
ss.(dp0
S'data'
p1
(dp2
S'success'
p3
I01
sS'settings'
p4
(lp5
I6
asS'normal'
p6
I00
sS'output'
p7
S'hello\nA1234'
p8
sS'date'
p9
cdatetime
datetime
p10
(S'\x07\xe1\x08\x19\x0c-\x00\x02F\xec'
p11
tp12
Rp13
sS'input'
p14
S''
p15
ss.(dp0
S'data'
p1
(dp2
S'success'
p3
I01
sS'settings'
p4
(lp5
I6
asS'normal'
p6
I00
sS'output'
p7
S'hello\nA1234'
p8
sS'date'
p9
cdatetime
datetime
p10
(S'\x07\xe1\x08\x19\x0c-\x00\x082v'
p11
tp12
Rp13
sS'input'
p14
S''
p15
ss.(dp0
S'data'
p1
(dp2
S'success'
p3
I01
sS'settings'
p4
(lp5
I6
asS'normal'
p6
I00
sS'output'
p7
S'hello\nA1234'
p8
sS'date'
p9
cdatetime
datetime
p10
(S'\x07\xe1\x08\x19\x0c-\x00\x0e1j'
p11
tp12
Rp13
sS'input'
p14
S''
p15
ss.(dp0
S'data'
p1
(dp2
S'success'
p3
I00
sS'settings'
p4
(lp5
I7
asS'normal'
p6
I00
sS'output'
p7
S'hello\nA'
p8
sS'date'
p9
cdatetime
datetime
p10
(S'\x07\xe1\x08\x19\x0c-\x01\x04\xea$'
p11
tp12
Rp13
sS'input'
p14
S''
p15
ss.(dp0
S'data'
p1
(dp2
S'success'
p3
I00
sS'settings'
p4
(lp5
I7
asS'normal'
p6
I00
sS'output'
p7
S'hello\nA'
p8
sS'date'
p9
cdatetime
datetime
p10
(S'\x07\xe1\x08\x19\x0c-\x01\x0b52'
p11
tp12
Rp13
sS'input'
p14
S''
p15
ss.(dp0
S'data'
p1
(dp2
S'success'
p3
I00
sS'settings'
p4
(lp5
I7
asS'normal'
p6
I00
sS'output'
p7
S'hello\nA'
p8
sS'date'
p9
cdatetime
datetime
p10
(S'\x07\xe1\x08\x19\x0c-\x02\x01\x81\xcb'
p11
tp12
Rp13
sS'input'
p14
S''
p15
ss.(dp0
S'data'
p1
(dp2
S'success'
p3
I00
sS'settings'
p4
(lp5
I7
asS'normal'
p6
I00
sS'output'
p7
S'hello\nA'
p8
sS'date'
p9
cdatetime
datetime
p10
(S'\x07\xe1\x08\x19\x0c-\x02\x07b{'
p11
tp12
Rp13
sS'input'
p14
S''
p15
ss.(dp0
S'data'
p1
(dp2
S'success'
p3
I00
sS'settings'
p4
(lp5
I7
asS'normal'
p6
I00
sS'output'
p7
S'hello\nA'
p8
sS'date'
p9
cdatetime
datetime
p10
(S'\x07\xe1\x08\x19\x0c-\x02\rL0'
p11
tp12
Rp13
sS'input'
p14
S''
p15
ss.(dp0
S'data'
p1
(dp2
S'success'
p3
I00
sS'settings'
p4
(lp5
I7
asS'normal'
p6
I00
sS'output'
p7
S'hello\nA'
p8
sS'date'
p9
cdatetime
datetime
p10
(S'\x07\xe1\x08\x19\x0c-\x03\x03\xef\x11'
p11
tp12
Rp13
sS'input'
p14
S''
p15
ss.(dp0
S'data'
p1
(dp2
S'success'
p3
I00
sS'settings'
p4
(lp5
I7
asS'normal'
p6
I00
sS'output'
p7
S'hello\nA'
p8
sS'date'
p9
cdatetime
datetime
p10
(S'\x07\xe1\x08\x19\x0c-\x03\t\xe2\x00'
p11
tp12
Rp13
sS'input'
p14
S''
p15
ss.(dp0
S'data'
p1
(dp2
S'success'
p3
I00
sS'settings'
p4
(lp5
I7
asS'normal'
p6
I00
sS'output'
p7
S'hello\nA'
p8
sS'date'
p9
cdatetime
datetime
p10
(S'\x07\xe1\x08\x19\x0c-\x04\x00\x8cJ'
p11
tp12
Rp13
sS'input'
p14
S''
p15
ss.(dp0
S'data'
p1
(dp2
S'success'
p3
I00
sS'settings'
p4
(lp5
I7
asS'normal'
p6
I00
sS'output'
p7
S'hello\nA'
p8
sS'date'
p9
cdatetime
datetime
p10
(S'\x07\xe1\x08\x19\x0c-\x04\x06o\x12'
p11
tp12
Rp13
sS'input'
p14
S''
p15
ss.(dp0
S'data'
p1
(dp2
S'success'
p3
I00
sS'settings'
p4
(lp5
I7
asS'normal'
p6
I00
sS'output'
p7
S'hello\nA'
p8
sS'date'
p9
cdatetime
datetime
p10
(S'\x07\xe1\x08\x19\x0c-\x04\x0c]g'
p11
tp12
Rp13
sS'input'
p14
S''
p15
ss.(dp0
S'data'
p1
(dp2
S'success'
p3
I00
sS'settings'
p4
(lp5
I8
asS'normal'
p6
I00
sS'output'
p7
S'hello\nA'
p8
sS'date'
p9
cdatetime
datetime
p10
(S'\x07\xe1\x08\x19\x0c-\x05\x02\xfd\xc2'
p11
tp12
Rp13
sS'input'
p14
S''
p15
ss.(dp0
S'data'
p1
(dp2
S'success'
p3
I00
sS'settings'
p4
(lp5
I8
asS'normal'
p6
I00
sS'output'
p7
S'hello\nA'
p8
sS'date'
p9
cdatetime
datetime
p10
(S'\x07\xe1\x08\x19\x0c-\x05\t\x8eE'
p11
tp12
Rp13
sS'input'
p14
S''
p15
ss.(dp0
S'data'
p1
(dp2
S'success'
p3
I00
sS'settings'
p4
(lp5
I8
asS'normal'
p6
I00
sS'output'
p7
S'hello\nA'
p8
sS'date'
p9
cdatetime
datetime
p10
(S'\x07\xe1\x08\x19\x0c-\x06\x00+n'
p11
tp12
Rp13
sS'input'
p14
S''
p15
ss.(dp0
S'data'
p1
(dp2
S'success'
p3
I00
sS'settings'
p4
(lp5
I8
asS'normal'
p6
I00
sS'output'
p7
S'hello\nA'
p8
sS'date'
p9
cdatetime
datetime
p10
(S'\x07\xe1\x08\x19\x0c-\x06\x06\x0e\x1d'
p11
tp12
Rp13
sS'input'
p14
S''
p15
ss.(dp0
S'data'
p1
(dp2
S'success'
p3
I00
sS'settings'
p4
(lp5
I8
asS'normal'
p6
I00
sS'output'
p7
S'hello\nA'
p8
sS'date'
p9
cdatetime
datetime
p10
(S'\x07\xe1\x08\x19\x0c-\x06\x0b\xdc\x8c'
p11
tp12
Rp13
sS'input'
p14
S''
p15
ss.(dp0
S'data'
p1
(dp2
S'success'
p3
I00
sS'settings'
p4
(lp5
I8
asS'normal'
p6
I00
sS'output'
p7
S'hello\nA'
p8
sS'date'
p9
cdatetime
datetime
p10
(S'\x07\xe1\x08\x19\x0c-\x07\x02O\xc4'
p11
tp12
Rp13
sS'input'
p14
S''
p15
ss.(dp0
S'data'
p1
(dp2
S'success'
p3
I00
sS'settings'
p4
(lp5
I8
asS'normal'
p6
I00
sS'output'
p7
S'hello\nA'
p8
sS'date'
p9
cdatetime
datetime
p10
(S'\x07\xe1\x08\x19\x0c-\x07\x083\xea'
p11
tp12
Rp13
sS'input'
p14
S''
p15
ss.(dp0
S'data'
p1
(dp2
S'success'
p3
I00
sS'settings'
p4
(lp5
I8
asS'normal'
p6
I00
sS'output'
p7
S'hello\nA'
p8
sS'date'
p9
cdatetime
datetime
p10
(S"\x07\xe1\x08\x19\x0c-\x07\x0e'\x9b"
p11
tp12
Rp13
sS'input'
p14
S''
p15
ss.(dp0
S'data'
p1
(dp2
S'success'
p3
I00
sS'settings'
p4
(lp5
I8
asS'normal'
p6
I00
sS'output'
p7
S'hello\nA'
p8
sS'date'
p9
cdatetime
datetime
p10
(S'\x07\xe1\x08\x19\x0c-\x08\x04\xcf:'
p11
tp12
Rp13
sS'input'
p14
S''
p15
ss.(dp0
S'data'
p1
(dp2
S'success'
p3
I00
sS'settings'
p4
(lp5
I8
asS'normal'
p6
I00
sS'output'
p7
S'hello\nA'
p8
sS'date'
p9
cdatetime
datetime
p10
(S'\x07\xe1\x08\x19\x0c-\x08\n\xc1O'
p11
tp12
Rp13
sS'input'
p14
S''
p15
ss.(dp0
S'data'
p1
(dp2
S'success'
p3
I00
sS'settings'
p4
(lp5
I9
asS'normal'
p6
I00
sS'output'
p7
S'hello\nA'
p8
sS'date'
p9
cdatetime
datetime
p10
(S'\x07\xe1\x08\x19\x0c-\t\x01\x86\x86'
p11
tp12
Rp13
sS'input'
p14
S''
p15
ss.(dp0
S'data'
p1
(dp2
S'success'
p3
I00
sS'settings'
p4
(lp5
I9
asS'normal'
p6
I00
sS'output'
p7
S'hello\nA'
p8
sS'date'
p9
cdatetime
datetime
p10
(S'\x07\xe1\x08\x19\x0c-\t\x08=q'
p11
tp12
Rp13
sS'input'
p14
S''
p15
ss.(dp0
S'data'
p1
(dp2
S'success'
p3
I00
sS'settings'
p4
(lp5
I9
asS'normal'
p6
I00
sS'output'
p7
S'hello\nA'
p8
sS'date'
p9
cdatetime
datetime
p10
(S'\x07\xe1\x08\x19\x0c-\t\x0e&\x0f'
p11
tp12
Rp13
sS'input'
p14
S''
p15
ss.(dp0
S'data'
p1
(dp2
S'success'
p3
I00
sS'settings'
p4
(lp5
I9
asS'normal'
p6
I00
sS'output'
p7
S'hello\nA'
p8
sS'date'
p9
cdatetime
datetime
p10
(S'\x07\xe1\x08\x19\x0c-\n\x04\xc8\xc6'
p11
tp12
Rp13
sS'input'
p14
S''
p15
ss.(dp0
S'data'
p1
(dp2
S'success'
p3
I00
sS'settings'
p4
(lp5
I9
asS'normal'
p6
I00
sS'output'
p7
S'hello\nA'
p8
sS'date'
p9
cdatetime
datetime
p10
(S'\x07\xe1\x08\x19\x0c-\n\n\xc8D'
p11
tp12
Rp13
sS'input'
p14
S''
p15
ss.(dp0
S'data'
p1
(dp2
S'success'
p3
I00
sS'settings'
p4
(lp5
I9
asS'normal'
p6
I00
sS'output'
p7
S'hello\nA'
p8
sS'date'
p9
cdatetime
datetime
p10
(S'\x07\xe1\x08\x19\x0c-\x0b\x01ud'
p11
tp12
Rp13
sS'input'
p14
S''
p15
ss.(dp0
S'data'
p1
(dp2
S'success'
p3
I00
sS'settings'
p4
(lp5
I9
asS'normal'
p6
I00
sS'output'
p7
S'hello\nA'
p8
sS'date'
p9
cdatetime
datetime
p10
(S'\x07\xe1\x08\x19\x0c-\x0b\x07`z'
p11
tp12
Rp13
sS'input'
p14
S''
p15
ss.(dp0
S'data'
p1
(dp2
S'success'
p3
I00
sS'settings'
p4
(lp5
I9
asS'normal'
p6
I00
sS'output'
p7
S'hello\nA'
p8
sS'date'
p9
cdatetime
datetime
p10
(S'\x07\xe1\x08\x19\x0c-\x0b\r#\xf4'
p11
tp12
Rp13
sS'input'
p14
S''
p15
ss.(dp0
S'data'
p1
(dp2
S'success'
p3
I00
sS'settings'
p4
(lp5
I9
asS'normal'
p6
I00
sS'output'
p7
S'hello\nA'
p8
sS'date'
p9
cdatetime
datetime
p10
(S'\x07\xe1\x08\x19\x0c-\x0c\x03\x82\xa8'
p11
tp12
Rp13
sS'input'
p14
S''
p15
ss.(dp0
S'data'
p1
(dp2
S'success'
p3
I00
sS'settings'
p4
(lp5
I9
asS'normal'
p6
I00
sS'output'
p7
S'hello\nA'
p8
sS'date'
p9
cdatetime
datetime
p10
(S'\x07\xe1\x08\x19\x0c-\x0c\t\x82\xeb'
p11
tp12
Rp13
sS'input'
p14
S''
p15
ss.(dp0
S'data'
p1
(dp2
S'success'
p3
I00
sS'settings'
p4
(lp5
I10
asS'normal'
p6
I00
sS'output'
p7
S'hello\nA'
p8
sS'date'
p9
cdatetime
datetime
p10
(S'\x07\xe1\x08\x19\x0c-\r\x00P\x8a'
p11
tp12
Rp13
sS'input'
p14
S''
p15
ss.(dp0
S'data'
p1
(dp2
S'success'
p3
I00
sS'settings'
p4
(lp5
I10
asS'normal'
p6
I00
sS'output'
p7
S'hello\nA'
p8
sS'date'
p9
cdatetime
datetime
p10
(S'\x07\xe1\x08\x19\x0c-\r\x07\x12\x14'
p11
tp12
Rp13
sS'input'
p14
S''
p15
ss.(dp0
S'data'
p1
(dp2
S'success'
p3
I00
sS'settings'
p4
(lp5
I10
asS'normal'
p6
I00
sS'output'
p7
S'hello\nA'
p8
sS'date'
p9
cdatetime
datetime
p10
(S'\x07\xe1\x08\x19\x0c-\r\x0c\xf9\xad'
p11
tp12
Rp13
sS'input'
p14
S''
p15
ss.(dp0
S'data'
p1
(dp2
S'success'
p3
I00
sS'settings'
p4
(lp5
I10
asS'normal'
p6
I00
sS'output'
p7
S'hello\nA'
p8
sS'date'
p9
cdatetime
datetime
p10
(S'\x07\xe1\x08\x19\x0c-\x0e\x03\xa4\xfd'
p11
tp12
Rp13
sS'input'
p14
S''
p15
ss.(dp0
S'data'
p1
(dp2
S'success'
p3
I00
sS'settings'
p4
(lp5
I10
asS'normal'
p6
I00
sS'output'
p7
S'hello\nA'
p8
sS'date'
p9
cdatetime
datetime
p10
(S'\x07\xe1\x08\x19\x0c-\x0e\t\x9d\xe9'
p11
tp12
Rp13
sS'input'
p14
S''
p15
ss.(dp0
S'data'
p1
(dp2
S'success'
p3
I00
sS'settings'
p4
(lp5
I10
asS'normal'
p6
I00
sS'output'
p7
S'hello\nA'
p8
sS'date'
p9
cdatetime
datetime
p10
(S'\x07\xe1\x08\x19\x0c-\x0f\x00UK'
p11
tp12
Rp13
sS'input'
p14
S''
p15
ss.(dp0
S'data'
p1
(dp2
S'success'
p3
I00
sS'settings'
p4
(lp5
I10
asS'normal'
p6
I00
sS'output'
p7
S'hello\nA'
p8
sS'date'
p9
cdatetime
datetime
p10
(S'\x07\xe1\x08\x19\x0c-\x0f\x06?\xf9'
p11
tp12
Rp13
sS'input'
p14
S''
p15
ss.(dp0
S'data'
p1
(dp2
S'success'
p3
I00
sS'settings'
p4
(lp5
I10
asS'normal'
p6
I00
sS'output'
p7
S'hello\nA'
p8
sS'date'
p9
cdatetime
datetime
p10
(S'\x07\xe1\x08\x19\x0c-\x0f\x0c9\xd0'
p11
tp12
Rp13
sS'input'
p14
S''
p15
ss.(dp0
S'data'
p1
(dp2
S'success'
p3
I00
sS'settings'
p4
(lp5
I10
asS'normal'
p6
I00
sS'output'
p7
S'hello\nA'
p8
sS'date'
p9
cdatetime
datetime
p10
(S'\x07\xe1\x08\x19\x0c-\x10\x02\xf0\xb1'
p11
tp12
Rp13
sS'input'
p14
S''
p15
ss.(dp0
S'data'
p1
(dp2
S'success'
p3
I00
sS'settings'
p4
(lp5
I10
asS'normal'
p6
I00
sS'output'
p7
S'hello\nA'
p8
sS'date'
p9
cdatetime
datetime
p10
(S'\x07\xe1\x08\x19\x0c-\x10\t\x03\x83'
p11
tp12
Rp13
sS'input'
p14
S''
p15
ss.(dp0
S'data'
p1
(dp2
S'success'
p3
I00
sS'settings'
p4
(lp5
I11
asS'normal'
p6
I00
sS'output'
p7
S'hello\nA'
p8
sS'date'
p9
cdatetime
datetime
p10
(S'\x07\xe1\x08\x19\x0c-\x10\x0e\xdb\x99'
p11
tp12
Rp13
sS'input'
p14
S''
p15
ss.(dp0
S'data'
p1
(dp2
S'success'
p3
I00
sS'settings'
p4
(lp5
I11
asS'normal'
p6
I00
sS'output'
p7
S'hello\nA'
p8
sS'date'
p9
cdatetime
datetime
p10
(S'\x07\xe1\x08\x19\x0c-\x11\x06r\x1e'
p11
tp12
Rp13
sS'input'
p14
S''
p15
ss.(dp0
S'data'
p1
(dp2
S'success'
p3
I00
sS'settings'
p4
(lp5
I11
asS'normal'
p6
I00
sS'output'
p7
S'hello\nA'
p8
sS'date'
p9
cdatetime
datetime
p10
(S'\x07\xe1\x08\x19\x0c-\x11\x0c\x11>'
p11
tp12
Rp13
sS'input'
p14
S''
p15
ss.(dp0
S'data'
p1
(dp2
S'success'
p3
I00
sS'settings'
p4
(lp5
I11
asS'normal'
p6
I00
sS'output'
p7
S'hello\nA'
p8
sS'date'
p9
cdatetime
datetime
p10
(S'\x07\xe1\x08\x19\x0c-\x12\x02\x93\xa0'
p11
tp12
Rp13
sS'input'
p14
S''
p15
ss.(dp0
S'data'
p1
(dp2
S'success'
p3
I00
sS'settings'
p4
(lp5
I11
asS'normal'
p6
I00
sS'output'
p7
S'hello\nA'
p8
sS'date'
p9
cdatetime
datetime
p10
(S'\x07\xe1\x08\x19\x0c-\x12\x08K '
p11
tp12
Rp13
sS'input'
p14
S''
p15
ss.(dp0
S'data'
p1
(dp2
S'success'
p3
I00
sS'settings'
p4
(lp5
I11
asS'normal'
p6
I00
sS'output'
p7
S'hello\nA'
p8
sS'date'
p9
cdatetime
datetime
p10
(S'\x07\xe1\x08\x19\x0c-\x12\x0eQ\xdd'
p11
tp12
Rp13
sS'input'
p14
S''
p15
ss.(dp0
S'data'
p1
(dp2
S'success'
p3
I00
sS'settings'
p4
(lp5
I11
asS'normal'
p6
I00
sS'output'
p7
S'hello\nA'
p8
sS'date'
p9
cdatetime
datetime
p10
(S'\x07\xe1\x08\x19\x0c-\x13\x04\xff\xe4'
p11
tp12
Rp13
sS'input'
p14
S''
p15
ss.(dp0
S'data'
p1
(dp2
S'success'
p3
I00
sS'settings'
p4
(lp5
I11
asS'normal'
p6
I00
sS'output'
p7
S'hello\nA'
p8
sS'date'
p9
cdatetime
datetime
p10
(S'\x07\xe1\x08\x19\x0c-\x13\n\xfb\xc8'
p11
tp12
Rp13
sS'input'
p14
S''
p15
ss.(dp0
S'data'
p1
(dp2
S'success'
p3
I00
sS'settings'
p4
(lp5
I11
asS'normal'
p6
I00
sS'output'
p7
S'hello\nA'
p8
sS'date'
p9
cdatetime
datetime
p10
(S'\x07\xe1\x08\x19\x0c-\x14\x01\xb2H'
p11
tp12
Rp13
sS'input'
p14
S''
p15
ss.(dp0
S'data'
p1
(dp2
S'success'
p3
I00
sS'settings'
p4
(lp5
I11
asS'normal'
p6
I00
sS'output'
p7
S'hello\nA'
p8
sS'date'
p9
cdatetime
datetime
p10
(S'\x07\xe1\x08\x19\x0c-\x14\x07\xa9\x8d'
p11
tp12
Rp13
sS'input'
p14
S''
p15
ss.(dp0
S'data'
p1
(dp2
S'success'
p3
I01
sS'settings'
p4
(lp5
I12
asS'normal'
p6
I00
sS'output'
p7
S'hello\nA1234'
p8
sS'date'
p9
cdatetime
datetime
p10
(S'\x07\xe1\x08\x19\x0c-\x14\r\xb1\x04'
p11
tp12
Rp13
sS'input'
p14
S''
p15
ss.(dp0
S'data'
p1
(dp2
S'success'
p3
I01
sS'settings'
p4
(lp5
I12
asS'normal'
p6
I00
sS'output'
p7
S'hello\nA1234'
p8
sS'date'
p9
cdatetime
datetime
p10
(S'\x07\xe1\x08\x19\x0c-\x15\x05[\xb2'
p11
tp12
Rp13
sS'input'
p14
S''
p15
ss.(dp0
S'data'
p1
(dp2
S'success'
p3
I01
sS'settings'
p4
(lp5
I12
asS'normal'
p6
I00
sS'output'
p7
S'hello\nA1234'
p8
sS'date'
p9
cdatetime
datetime
p10
(S'\x07\xe1\x08\x19\x0c-\x15\x0b>\x8b'
p11
tp12
Rp13
sS'input'
p14
S''
p15
ss.(dp0
S'data'
p1
(dp2
S'success'
p3
I01
sS'settings'
p4
(lp5
I12
asS'normal'
p6
I00
sS'output'
p7
S'hello\nA1234'
p8
sS'date'
p9
cdatetime
datetime
p10
(S'\x07\xe1\x08\x19\x0c-\x16\x01\xefF'
p11
tp12
Rp13
sS'input'
p14
S''
p15
ss.(dp0
S'data'
p1
(dp2
S'success'
p3
I01
sS'settings'
p4
(lp5
I12
asS'normal'
p6
I00
sS'output'
p7
S'hello\nA1234'
p8
sS'date'
p9
cdatetime
datetime
p10
(S'\x07\xe1\x08\x19\x0c-\x16\x07\xd8\xd3'
p11
tp12
Rp13
sS'input'
p14
S''
p15
ss.(dp0
S'data'
p1
(dp2
S'success'
p3
I01
sS'settings'
p4
(lp5
I12
asS'normal'
p6
I00
sS'output'
p7
S'hello\nA1234'
p8
sS'date'
p9
cdatetime
datetime
p10
(S'\x07\xe1\x08\x19\x0c-\x16\r\xe2\x96'
p11
tp12
Rp13
sS'input'
p14
S''
p15
ss.(dp0
S'data'
p1
(dp2
S'success'
p3
I01
sS'settings'
p4
(lp5
I12
asS'normal'
p6
I00
sS'output'
p7
S'hello\nA1234'
p8
sS'date'
p9
cdatetime
datetime
p10
(S'\x07\xe1\x08\x19\x0c-\x17\x04\x98\x1c'
p11
tp12
Rp13
sS'input'
p14
S''
p15
ss.(dp0
S'data'
p1
(dp2
S'success'
p3
I01
sS'settings'
p4
(lp5
I12
asS'normal'
p6
I00
sS'output'
p7
S'hello\nA1234'
p8
sS'date'
p9
cdatetime
datetime
p10
(S'\x07\xe1\x08\x19\x0c-\x17\nz\xb7'
p11
tp12
Rp13
sS'input'
p14
S''
p15
ss.(dp0
S'data'
p1
(dp2
S'success'
p3
I01
sS'settings'
p4
(lp5
I12
asS'normal'
p6
I00
sS'output'
p7
S'hello\nA1234'
p8
sS'date'
p9
cdatetime
datetime
p10
(S'\x07\xe1\x08\x19\x0c-\x18\x01=X'
p11
tp12
Rp13
sS'input'
p14
S''
p15
ss.(dp0
S'data'
p1
(dp2
S'success'
p3
I01
sS'settings'
p4
(lp5
I12
asS'normal'
p6
I00
sS'output'
p7
S'hello\nA1234'
p8
sS'date'
p9
cdatetime
datetime
p10
(S'\x07\xe1\x08\x19\x0c-\x18\x075W'
p11
tp12
Rp13
sS'input'
p14
S''
p15
ss.(dp0
S'data'
p1
(dp2
S'success'
p3
I00
sS'settings'
p4
(lp5
I13
asS'normal'
p6
I00
sS'output'
p7
S'hello\nA'
p8
sS'date'
p9
cdatetime
datetime
p10
(S'\x07\xe1\x08\x19\x0c-\x18\r&I'
p11
tp12
Rp13
sS'input'
p14
S''
p15
ss.(dp0
S'data'
p1
(dp2
S'success'
p3
I00
sS'settings'
p4
(lp5
I13
asS'normal'
p6
I00
sS'output'
p7
S'hello\nA'
p8
sS'date'
p9
cdatetime
datetime
p10
(S'\x07\xe1\x08\x19\x0c-\x19\x04\xc6\xbf'
p11
tp12
Rp13
sS'input'
p14
S''
p15
ss.(dp0
S'data'
p1
(dp2
S'success'
p3
I00
sS'settings'
p4
(lp5
I13
asS'normal'
p6
I00
sS'output'
p7
S'hello\nA'
p8
sS'date'
p9
cdatetime
datetime
p10
(S'\x07\xe1\x08\x19\x0c-\x19\n\xbe&'
p11
tp12
Rp13
sS'input'
p14
S''
p15
ss.(dp0
S'data'
p1
(dp2
S'success'
p3
I00
sS'settings'
p4
(lp5
I13
asS'normal'
p6
I00
sS'output'
p7
S'hello\nA'
p8
sS'date'
p9
cdatetime
datetime
p10
(S'\x07\xe1\x08\x19\x0c-\x1a\x01|o'
p11
tp12
Rp13
sS'input'
p14
S''
p15
ss.(dp0
S'data'
p1
(dp2
S'success'
p3
I00
sS'settings'
p4
(lp5
I13
asS'normal'
p6
I00
sS'output'
p7
S'hello\nA'
p8
sS'date'
p9
cdatetime
datetime
p10
(S'\x07\xe1\x08\x19\x0c-\x1a\x07k\xbd'
p11
tp12
Rp13
sS'input'
p14
S''
p15
ss.(dp0
S'data'
p1
(dp2
S'success'
p3
I00
sS'settings'
p4
(lp5
I13
asS'normal'
p6
I00
sS'output'
p7
S'hello\nA'
p8
sS'date'
p9
cdatetime
datetime
p10
(S'\x07\xe1\x08\x19\x0c-\x1a\rM!'
p11
tp12
Rp13
sS'input'
p14
S''
p15
ss.(dp0
S'data'
p1
(dp2
S'success'
p3
I00
sS'settings'
p4
(lp5
I13
asS'normal'
p6
I00
sS'output'
p7
S'hello\nA'
p8
sS'date'
p9
cdatetime
datetime
p10
(S'\x07\xe1\x08\x19\x0c-\x1b\x04\x0bV'
p11
tp12
Rp13
sS'input'
p14
S''
p15
ss.(dp0
S'data'
p1
(dp2
S'success'
p3
I00
sS'settings'
p4
(lp5
I13
asS'normal'
p6
I00
sS'output'
p7
S'hello\nA'
p8
sS'date'
p9
cdatetime
datetime
p10
(S'\x07\xe1\x08\x19\x0c-\x1b\n\x15\xbf'
p11
tp12
Rp13
sS'input'
p14
S''
p15
ss.(dp0
S'data'
p1
(dp2
S'success'
p3
I00
sS'settings'
p4
(lp5
I13
asS'normal'
p6
I00
sS'output'
p7
S'hello\nA'
p8
sS'date'
p9
cdatetime
datetime
p10
(S'\x07\xe1\x08\x19\x0c-\x1c\x00\xd5\x04'
p11
tp12
Rp13
sS'input'
p14
S''
p15
ss.(dp0
S'data'
p1
(dp2
S'success'
p3
I00
sS'settings'
p4
(lp5
I13
asS'normal'
p6
I00
sS'output'
p7
S'hello\nA'
p8
sS'date'
p9
cdatetime
datetime
p10
(S'\x07\xe1\x08\x19\x0c-\x1c\x06\xd4;'
p11
tp12
Rp13
sS'input'
p14
S''
p15
ss.(dp0
S'data'
p1
(dp2
S'success'
p3
I00
sS'settings'
p4
(lp5
I14
asS'normal'
p6
I00
sS'output'
p7
S'hello\nA'
p8
sS'date'
p9
cdatetime
datetime
p10
(S'\x07\xe1\x08\x19\x0c-\x1c\x0c\xe1\x82'
p11
tp12
Rp13
sS'input'
p14
S''
p15
ss.(dp0
S'data'
p1
(dp2
S'success'
p3
I00
sS'settings'
p4
(lp5
I14
asS'normal'
p6
I00
sS'output'
p7
S'hello\nA'
p8
sS'date'
p9
cdatetime
datetime
p10
(S'\x07\xe1\x08\x19\x0c-\x1d\x04\xb2\x89'
p11
tp12
Rp13
sS'input'
p14
S''
p15
ss.(dp0
S'data'
p1
(dp2
S'success'
p3
I00
sS'settings'
p4
(lp5
I14
asS'normal'
p6
I00
sS'output'
p7
S'hello\nA'
p8
sS'date'
p9
cdatetime
datetime
p10
(S'\x07\xe1\x08\x19\x0c-\x1d\n\x98\x8d'
p11
tp12
Rp13
sS'input'
p14
S''
p15
ss.(dp0
S'data'
p1
(dp2
S'success'
p3
I00
sS'settings'
p4
(lp5
I14
asS'normal'
p6
I00
sS'output'
p7
S'hello\nA'
p8
sS'date'
p9
cdatetime
datetime
p10
(S'\x07\xe1\x08\x19\x0c-\x1e\x01-6'
p11
tp12
Rp13
sS'input'
p14
S''
p15
ss.(dp0
S'data'
p1
(dp2
S'success'
p3
I00
sS'settings'
p4
(lp5
I14
asS'normal'
p6
I00
sS'output'
p7
S'hello\nA'
p8
sS'date'
p9
cdatetime
datetime
p10
(S'\x07\xe1\x08\x19\x0c-\x1e\x07\x05\xda'
p11
tp12
Rp13
sS'input'
p14
S''
p15
ss.(dp0
S'data'
p1
(dp2
S'success'
p3
I00
sS'settings'
p4
(lp5
I14
asS'normal'
p6
I00
sS'output'
p7
S'hello\nA'
p8
sS'date'
p9
cdatetime
datetime
p10
(S'\x07\xe1\x08\x19\x0c-\x1e\r\x12\xf8'
p11
tp12
Rp13
sS'input'
p14
S''
p15
ss.(dp0
S'data'
p1
(dp2
S'success'
p3
I00
sS'settings'
p4
(lp5
I14
asS'normal'
p6
I00
sS'output'
p7
S'hello\nA'
p8
sS'date'
p9
cdatetime
datetime
p10
(S'\x07\xe1\x08\x19\x0c-\x1f\x03\xc2\x95'
p11
tp12
Rp13
sS'input'
p14
S''
p15
ss.(dp0
S'data'
p1
(dp2
S'success'
p3
I00
sS'settings'
p4
(lp5
I14
asS'normal'
p6
I00
sS'output'
p7
S'hello\nA'
p8
sS'date'
p9
cdatetime
datetime
p10
(S'\x07\xe1\x08\x19\x0c-\x1f\t\xaa\xc5'
p11
tp12
Rp13
sS'input'
p14
S''
p15
ss.(dp0
S'data'
p1
(dp2
S'success'
p3
I00
sS'settings'
p4
(lp5
I14
asS'normal'
p6
I00
sS'output'
p7
S'hello\nA'
p8
sS'date'
p9
cdatetime
datetime
p10
(S'\x07\xe1\x08\x19\x0c- \x00}<'
p11
tp12
Rp13
sS'input'
p14
S''
p15
ss.(dp0
S'data'
p1
(dp2
S'success'
p3
I00
sS'settings'
p4
(lp5
I14
asS'normal'
p6
I00
sS'output'
p7
S'hello\nA'
p8
sS'date'
p9
cdatetime
datetime
p10
(S'\x07\xe1\x08\x19\x0c- \x06\x83!'
p11
tp12
Rp13
sS'input'
p14
S''
p15
ss.(dp0
S'data'
p1
(dp2
S'success'
p3
I00
sS'settings'
p4
(lp5
I15
asS'normal'
p6
I00
sS'output'
p7
S'hello\nA'
p8
sS'date'
p9
cdatetime
datetime
p10
(S'\x07\xe1\x08\x19\x0c- \x0c\x96\xf4'
p11
tp12
Rp13
sS'input'
p14
S''
p15
ss.(dp0
S'data'
p1
(dp2
S'success'
p3
I00
sS'settings'
p4
(lp5
I15
asS'normal'
p6
I00
sS'output'
p7
S'hello\nA'
p8
sS'date'
p9
cdatetime
datetime
p10
(S'\x07\xe1\x08\x19\x0c-!\x04|6'
p11
tp12
Rp13
sS'input'
p14
S''
p15
ss.(dp0
S'data'
p1
(dp2
S'success'
p3
I00
sS'settings'
p4
(lp5
I15
asS'normal'
p6
I00
sS'output'
p7
S'hello\nA'
p8
sS'date'
p9
cdatetime
datetime
p10
(S'\x07\xe1\x08\x19\x0c-!\n|\xd8'
p11
tp12
Rp13
sS'input'
p14
S''
p15
ss.(dp0
S'data'
p1
(dp2
S'success'
p3
I00
sS'settings'
p4
(lp5
I15
asS'normal'
p6
I00
sS'output'
p7
S'hello\nA'
p8
sS'date'
p9
cdatetime
datetime
p10
(S'\x07\xe1\x08\x19\x0c-"\x01-['
p11
tp12
Rp13
sS'input'
p14
S''
p15
ss.(dp0
S'data'
p1
(dp2
S'success'
p3
I00
sS'settings'
p4
(lp5
I15
asS'normal'
p6
I00
sS'output'
p7
S'hello\nA'
p8
sS'date'
p9
cdatetime
datetime
p10
(S'\x07\xe1\x08\x19\x0c-"\x07\x1aL'
p11
tp12
Rp13
sS'input'
p14
S''
p15
ss.(dp0
S'data'
p1
(dp2
S'success'
p3
I00
sS'settings'
p4
(lp5
I15
asS'normal'
p6
I00
sS'output'
p7
S'hello\nA'
p8
sS'date'
p9
cdatetime
datetime
p10
(S'\x07\xe1\x08\x19\x0c-"\r$m'
p11
tp12
Rp13
sS'input'
p14
S''
p15
ss.(dp0
S'data'
p1
(dp2
S'success'
p3
I00
sS'settings'
p4
(lp5
I15
asS'normal'
p6
I00
sS'output'
p7
S'hello\nA'
p8
sS'date'
p9
cdatetime
datetime
p10
(S'\x07\xe1\x08\x19\x0c-#\x03\xe2%'
p11
tp12
Rp13
sS'input'
p14
S''
p15
ss.(dp0
S'data'
p1
(dp2
S'success'
p3
I00
sS'settings'
p4
(lp5
I15
asS'normal'
p6
I00
sS'output'
p7
S'hello\nA'
p8
sS'date'
p9
cdatetime
datetime
p10
(S'\x07\xe1\x08\x19\x0c-#\t\xd4\xe4'
p11
tp12
Rp13
sS'input'
p14
S''
p15
ss.(dp0
S'data'
p1
(dp2
S'success'
p3
I00
sS'settings'
p4
(lp5
I15
asS'normal'
p6
I00
sS'output'
p7
S'hello\nA'
p8
sS'date'
p9
cdatetime
datetime
p10
(S'\x07\xe1\x08\x19\x0c-$\x00\xa8.'
p11
tp12
Rp13
sS'input'
p14
S''
p15
ss.(dp0
S'data'
p1
(dp2
S'success'
p3
I00
sS'settings'
p4
(lp5
I15
asS'normal'
p6
I00
sS'output'
p7
S'hello\nA'
p8
sS'date'
p9
cdatetime
datetime
p10
(S'\x07\xe1\x08\x19\x0c-$\x06\xa0\xff'
p11
tp12
Rp13
sS'input'
p14
S''
p15
ss.(dp0
S'data'
p1
(dp2
S'success'
p3
I00
sS'settings'
p4
(lp5
I16
asS'normal'
p6
I00
sS'output'
p7
S'hello\nA'
p8
sS'date'
p9
cdatetime
datetime
p10
(S'\x07\xe1\x08\x19\x0c-$\x0c\xc6\x03'
p11
tp12
Rp13
sS'input'
p14
S''
p15
ss.(dp0
S'data'
p1
(dp2
S'success'
p3
I00
sS'settings'
p4
(lp5
I16
asS'normal'
p6
I00
sS'output'
p7
S'hello\nA'
p8
sS'date'
p9
cdatetime
datetime
p10
(S'\x07\xe1\x08\x19\x0c-%\x04\xd8\xdb'
p11
tp12
Rp13
sS'input'
p14
S''
p15
ss.(dp0
S'data'
p1
(dp2
S'success'
p3
I00
sS'settings'
p4
(lp5
I16
asS'normal'
p6
I00
sS'output'
p7
S'hello\nA'
p8
sS'date'
p9
cdatetime
datetime
p10
(S'\x07\xe1\x08\x19\x0c-%\n\xd1\x9d'
p11
tp12
Rp13
sS'input'
p14
S''
p15
ss.(dp0
S'data'
p1
(dp2
S'success'
p3
I00
sS'settings'
p4
(lp5
I16
asS'normal'
p6
I00
sS'output'
p7
S'hello\nA'
p8
sS'date'
p9
cdatetime
datetime
p10
(S'\x07\xe1\x08\x19\x0c-&\x01\xa4h'
p11
tp12
Rp13
sS'input'
p14
S''
p15
ss.(dp0
S'data'
p1
(dp2
S'success'
p3
I00
sS'settings'
p4
(lp5
I16
asS'normal'
p6
I00
sS'output'
p7
S'hello\nA'
p8
sS'date'
p9
cdatetime
datetime
p10
(S'\x07\xe1\x08\x19\x0c-&\x07\xb49'
p11
tp12
Rp13
sS'input'
p14
S''
p15
ss.(dp0
S'data'
p1
(dp2
S'success'
p3
I00
sS'settings'
p4
(lp5
I16
asS'normal'
p6
I00
sS'output'
p7
S'hello\nA'
p8
sS'date'
p9
cdatetime
datetime
p10
(S'\x07\xe1\x08\x19\x0c-&\r\xd7\x89'
p11
tp12
Rp13
sS'input'
p14
S''
p15
ss.(dp0
S'data'
p1
(dp2
S'success'
p3
I00
sS'settings'
p4
(lp5
I16
asS'normal'
p6
I00
sS'output'
p7
S'hello\nA'
p8
sS'date'
p9
cdatetime
datetime
p10
(S"\x07\xe1\x08\x19\x0c-'\x04\x97\x9b"
p11
tp12
Rp13
sS'input'
p14
S''
p15
ss.(dp0
S'data'
p1
(dp2
S'success'
p3
I00
sS'settings'
p4
(lp5
I16
asS'normal'
p6
I00
sS'output'
p7
S'hello\nA'
p8
sS'date'
p9
cdatetime
datetime
p10
(S"\x07\xe1\x08\x19\x0c-'\n\xba\xb4"
p11
tp12
Rp13
sS'input'
p14
S''
p15
ss.(dp0
S'data'
p1
(dp2
S'success'
p3
I00
sS'settings'
p4
(lp5
I16
asS'normal'
p6
I00
sS'output'
p7
S'hello\nA'
p8
sS'date'
p9
cdatetime
datetime
p10
(S'\x07\xe1\x08\x19\x0c-(\x01\x98\x86'
p11
tp12
Rp13
sS'input'
p14
S''
p15
ss.(dp0
S'data'
p1
(dp2
S'success'
p3
I00
sS'settings'
p4
(lp5
I16
asS'normal'
p6
I00
sS'output'
p7
S'hello\nA'
p8
sS'date'
p9
cdatetime
datetime
p10
(S'\x07\xe1\x08\x19\x0c-(\x07\x84o'
p11
tp12
Rp13
sS'input'
p14
S''
p15
ss.(dp0
S'data'
p1
(dp2
S'success'
p3
I00
sS'settings'
p4
(lp5
I17
asS'normal'
p6
I00
sS'output'
p7
S'hello\nA'
p8
sS'date'
p9
cdatetime
datetime
p10
(S'\x07\xe1\x08\x19\x0c-(\r\xac\xbd'
p11
tp12
Rp13
sS'input'
p14
S''
p15
ss.(dp0
S'data'
p1
(dp2
S'success'
p3
I00
sS'settings'
p4
(lp5
I17
asS'normal'
p6
I00
sS'output'
p7
S'hello\nA'
p8
sS'date'
p9
cdatetime
datetime
p10
(S'\x07\xe1\x08\x19\x0c-)\x05\xdd\x08'
p11
tp12
Rp13
sS'input'
p14
S''
p15
ss.(dp0
S'data'
p1
(dp2
S'success'
p3
I00
sS'settings'
p4
(lp5
I17
asS'normal'
p6
I00
sS'output'
p7
S'hello\nA'
p8
sS'date'
p9
cdatetime
datetime
p10
(S'\x07\xe1\x08\x19\x0c-)\x0b\xd9\xa0'
p11
tp12
Rp13
sS'input'
p14
S''
p15
ss.(dp0
S'data'
p1
(dp2
S'success'
p3
I00
sS'settings'
p4
(lp5
I17
asS'normal'
p6
I00
sS'output'
p7
S'hello\nA'
p8
sS'date'
p9
cdatetime
datetime
p10
(S'\x07\xe1\x08\x19\x0c-*\x02\xb3\xf3'
p11
tp12
Rp13
sS'input'
p14
S''
p15
ss.(dp0
S'data'
p1
(dp2
S'success'
p3
I00
sS'settings'
p4
(lp5
I17
asS'normal'
p6
I00
sS'output'
p7
S'hello\nA'
p8
sS'date'
p9
cdatetime
datetime
p10
(S'\x07\xe1\x08\x19\x0c-*\x08\xc8\x15'
p11
tp12
Rp13
sS'input'
p14
S''
p15
ss.(dp0
S'data'
p1
(dp2
S'success'
p3
I00
sS'settings'
p4
(lp5
I17
asS'normal'
p6
I00
sS'output'
p7
S'hello\nA'
p8
sS'date'
p9
cdatetime
datetime
p10
(S'\x07\xe1\x08\x19\x0c-*\x0e\xd8K'
p11
tp12
Rp13
sS'input'
p14
S''
p15
ss.(dp0
S'data'
p1
(dp2
S'success'
p3
I00
sS'settings'
p4
(lp5
I17
asS'normal'
p6
I00
sS'output'
p7
S'hello\nA'
p8
sS'date'
p9
cdatetime
datetime
p10
(S'\x07\xe1\x08\x19\x0c-+\x05\x98\xd3'
p11
tp12
Rp13
sS'input'
p14
S''
p15
ss.(dp0
S'data'
p1
(dp2
S'success'
p3
I00
sS'settings'
p4
(lp5
I17
asS'normal'
p6
I00
sS'output'
p7
S'hello\nA'
p8
sS'date'
p9
cdatetime
datetime
p10
(S'\x07\xe1\x08\x19\x0c-+\x0b\xbe\xec'
p11
tp12
Rp13
sS'input'
p14
S''
p15
ss.(dp0
S'data'
p1
(dp2
S'success'
p3
I00
sS'settings'
p4
(lp5
I17
asS'normal'
p6
I00
sS'output'
p7
S'hello\nA'
p8
sS'date'
p9
cdatetime
datetime
p10
(S'\x07\xe1\x08\x19\x0c-,\x02TX'
p11
tp12
Rp13
sS'input'
p14
S''
p15
ss.(dp0
S'data'
p1
(dp2
S'success'
p3
I00
sS'settings'
p4
(lp5
I17
asS'normal'
p6
I00
sS'output'
p7
S'hello\nA'
p8
sS'date'
p9
cdatetime
datetime
p10
(S'\x07\xe1\x08\x19\x0c-,\x08xV'
p11
tp12
Rp13
sS'input'
p14
S''
p15
ss.(dp0
S'data'
p1
(dp2
S'success'
p3
I01
sS'settings'
p4
(lp5
I18
asS'normal'
p6
I00
sS'output'
p7
S'hello\nA1234'
p8
sS'date'
p9
cdatetime
datetime
p10
(S'\x07\xe1\x08\x19\x0c-,\x0e\xacS'
p11
tp12
Rp13
sS'input'
p14
S''
p15
ss.(dp0
S'data'
p1
(dp2
S'success'
p3
I01
sS'settings'
p4
(lp5
I18
asS'normal'
p6
I00
sS'output'
p7
S'hello\nA1234'
p8
sS'date'
p9
cdatetime
datetime
p10
(S'\x07\xe1\x08\x19\x0c--\x06\xf2\x14'
p11
tp12
Rp13
sS'input'
p14
S''
p15
ss.(dp0
S'data'
p1
(dp2
S'success'
p3
I01
sS'settings'
p4
(lp5
I18
asS'normal'
p6
I00
sS'output'
p7
S'hello\nA1234'
p8
sS'date'
p9
cdatetime
datetime
p10
(S'\x07\xe1\x08\x19\x0c--\x0c\xe1\x82'
p11
tp12
Rp13
sS'input'
p14
S''
p15
ss.(dp0
S'data'
p1
(dp2
S'success'
p3
I01
sS'settings'
p4
(lp5
I18
asS'normal'
p6
I00
sS'output'
p7
S'hello\nA1234'
p8
sS'date'
p9
cdatetime
datetime
p10
(S'\x07\xe1\x08\x19\x0c-.\x03\xbf\xe5'
p11
tp12
Rp13
sS'input'
p14
S''
p15
ss.(dp0
S'data'
p1
(dp2
S'success'
p3
I01
sS'settings'
p4
(lp5
I18
asS'normal'
p6
I00
sS'output'
p7
S'hello\nA1234'
p8
sS'date'
p9
cdatetime
datetime
p10
(S'\x07\xe1\x08\x19\x0c-.\t\xe9\x9f'
p11
tp12
Rp13
sS'input'
p14
S''
p15
ss.(dp0
S'data'
p1
(dp2
S'success'
p3
I01
sS'settings'
p4
(lp5
I18
asS'normal'
p6
I00
sS'output'
p7
S'hello\nA1234'
p8
sS'date'
p9
cdatetime
datetime
p10
(S'\x07\xe1\x08\x19\x0c-/\x00\xde^'
p11
tp12
Rp13
sS'input'
p14
S''
p15
ss.(dp0
S'data'
p1
(dp2
S'success'
p3
I01
sS'settings'
p4
(lp5
I18
asS'normal'
p6
I00
sS'output'
p7
S'hello\nA1234'
p8
sS'date'
p9
cdatetime
datetime
p10
(S'\x07\xe1\x08\x19\x0c-/\x07\x04_'
p11
tp12
Rp13
sS'input'
p14
S''
p15
ss.(dp0
S'data'
p1
(dp2
S'success'
p3
I01
sS'settings'
p4
(lp5
I18
asS'normal'
p6
I00
sS'output'
p7
S'hello\nA1234'
p8
sS'date'
p9
cdatetime
datetime
p10
(S'\x07\xe1\x08\x19\x0c-/\r3\xc6'
p11
tp12
Rp13
sS'input'
p14
S''
p15
ss.(dp0
S'data'
p1
(dp2
S'success'
p3
I01
sS'settings'
p4
(lp5
I18
asS'normal'
p6
I00
sS'output'
p7
S'hello\nA1234'
p8
sS'date'
p9
cdatetime
datetime
p10
(S'\x07\xe1\x08\x19\x0c-0\x04\x14\x08'
p11
tp12
Rp13
sS'input'
p14
S''
p15
ss.(dp0
S'data'
p1
(dp2
S'success'
p3
I01
sS'settings'
p4
(lp5
I18
asS'normal'
p6
I00
sS'output'
p7
S'hello\nA1234'
p8
sS'date'
p9
cdatetime
datetime
p10
(S'\x07\xe1\x08\x19\x0c-0\n>M'
p11
tp12
Rp13
sS'input'
p14
S''
p15
ss.(dp0
S'data'
p1
(dp2
S'success'
p3
I00
sS'settings'
p4
(lp5
I19
asS'normal'
p6
I00
sS'output'
p7
S'hello\nA'
p8
sS'date'
p9
cdatetime
datetime
p10
(S'\x07\xe1\x08\x19\x0c-1\x018\x99'
p11
tp12
Rp13
sS'input'
p14
S''
p15
ss.(dp0
S'data'
p1
(dp2
S'success'
p3
I00
sS'settings'
p4
(lp5
I19
asS'normal'
p6
I00
sS'output'
p7
S'hello\nA'
p8
sS'date'
p9
cdatetime
datetime
p10
(S'\x07\xe1\x08\x19\x0c-1\x08\xecw'
p11
tp12
Rp13
sS'input'
p14
S''
p15
ss.(dp0
S'data'
p1
(dp2
S'success'
p3
I00
sS'settings'
p4
(lp5
I19
asS'normal'
p6
I00
sS'output'
p7
S'hello\nA'
p8
sS'date'
p9
cdatetime
datetime
p10
(S'\x07\xe1\x08\x19\x0c-1\x0f\x10N'
p11
tp12
Rp13
sS'input'
p14
S''
p15
ss.(dp0
S'data'
p1
(dp2
S'success'
p3
I00
sS'settings'
p4
(lp5
I19
asS'normal'
p6
I00
sS'output'
p7
S'hello\nA'
p8
sS'date'
p9
cdatetime
datetime
p10
(S'\x07\xe1\x08\x19\x0c-2\x05\xe9k'
p11
tp12
Rp13
sS'input'
p14
S''
p15
ss.(dp0
S'data'
p1
(dp2
S'success'
p3
I00
sS'settings'
p4
(lp5
I19
asS'normal'
p6
I00
sS'output'
p7
S'hello\nA'
p8
sS'date'
p9
cdatetime
datetime
p10
(S'\x07\xe1\x08\x19\x0c-2\x0b\xf8\xb2'
p11
tp12
Rp13
sS'input'
p14
S''
p15
ss.(dp0
S'data'
p1
(dp2
S'success'
p3
I00
sS'settings'
p4
(lp5
I19
asS'normal'
p6
I00
sS'output'
p7
S'hello\nA'
p8
sS'date'
p9
cdatetime
datetime
p10
(S'\x07\xe1\x08\x19\x0c-3\x02\xe2t'
p11
tp12
Rp13
sS'input'
p14
S''
p15
ss.(dp0
S'data'
p1
(dp2
S'success'
p3
I00
sS'settings'
p4
(lp5
I19
asS'normal'
p6
I00
sS'output'
p7
S'hello\nA'
p8
sS'date'
p9
cdatetime
datetime
p10
(S'\x07\xe1\x08\x19\x0c-3\t\x08\xc5'
p11
tp12
Rp13
sS'input'
p14
S''
p15
ss.(dp0
S'data'
p1
(dp2
S'success'
p3
I00
sS'settings'
p4
(lp5
I19
asS'normal'
p6
I00
sS'output'
p7
S'hello\nA'
p8
sS'date'
p9
cdatetime
datetime
p10
(S'\x07\xe1\x08\x19\x0c-3\x0f2\xf6'
p11
tp12
Rp13
sS'input'
p14
S''
p15
ss.(dp0
S'data'
p1
(dp2
S'success'
p3
I00
sS'settings'
p4
(lp5
I19
asS'normal'
p6
I00
sS'output'
p7
S'hello\nA'
p8
sS'date'
p9
cdatetime
datetime
p10
(S'\x07\xe1\x08\x19\x0c-4\x06\x05j'
p11
tp12
Rp13
sS'input'
p14
S''
p15
ss.(dp0
S'data'
p1
(dp2
S'success'
p3
I00
sS'settings'
p4
(lp5
I19
asS'normal'
p6
I00
sS'output'
p7
S'hello\nA'
p8
sS'date'
p9
cdatetime
datetime
p10
(S'\x07\xe1\x08\x19\x0c-4\x0c+\x80'
p11
tp12
Rp13
sS'input'
p14
S''
p15
ss.(dp0
S'data'
p1
(dp2
S'success'
p3
I00
sS'settings'
p4
(lp5
I20
asS'normal'
p6
I00
sS'output'
p7
S'hello\nA'
p8
sS'date'
p9
cdatetime
datetime
p10
(S'\x07\xe1\x08\x19\x0c-5\x03\x15\x85'
p11
tp12
Rp13
sS'input'
p14
S''
p15
ss.(dp0
S'data'
p1
(dp2
S'success'
p3
I00
sS'settings'
p4
(lp5
I20
asS'normal'
p6
I00
sS'output'
p7
S'hello\nA'
p8
sS'date'
p9
cdatetime
datetime
p10
(S'\x07\xe1\x08\x19\x0c-5\n\xc8\x85'
p11
tp12
Rp13
sS'input'
p14
S''
p15
ss.(dp0
S'data'
p1
(dp2
S'success'
p3
I00
sS'settings'
p4
(lp5
I20
asS'normal'
p6
I00
sS'output'
p7
S'hello\nA'
p8
sS'date'
p9
cdatetime
datetime
p10
(S'\x07\xe1\x08\x19\x0c-6\x01\xb9\x85'
p11
tp12
Rp13
sS'input'
p14
S''
p15
ss.(dp0
S'data'
p1
(dp2
S'success'
p3
I00
sS'settings'
p4
(lp5
I20
asS'normal'
p6
I00
sS'output'
p7
S'hello\nA'
p8
sS'date'
p9
cdatetime
datetime
p10
(S'\x07\xe1\x08\x19\x0c-6\x07\xdd^'
p11
tp12
Rp13
sS'input'
p14
S''
p15
ss.(dp0
S'data'
p1
(dp2
S'success'
p3
I00
sS'settings'
p4
(lp5
I20
asS'normal'
p6
I00
sS'output'
p7
S'hello\nA'
p8
sS'date'
p9
cdatetime
datetime
p10
(S'\x07\xe1\x08\x19\x0c-6\x0e\x11\xa1'
p11
tp12
Rp13
sS'input'
p14
S''
p15
ss.(dp0
S'data'
p1
(dp2
S'success'
p3
I00
sS'settings'
p4
(lp5
I20
asS'normal'
p6
I00
sS'output'
p7
S'hello\nA'
p8
sS'date'
p9
cdatetime
datetime
p10
(S'\x07\xe1\x08\x19\x0c-7\x05\x01U'
p11
tp12
Rp13
sS'input'
p14
S''
p15
ss.(dp0
S'data'
p1
(dp2
S'success'
p3
I00
sS'settings'
p4
(lp5
I20
asS'normal'
p6
I00
sS'output'
p7
S'hello\nA'
p8
sS'date'
p9
cdatetime
datetime
p10
(S'\x07\xe1\x08\x19\x0c-7\n\xf4i'
p11
tp12
Rp13
sS'input'
p14
S''
p15
ss.(dp0
S'data'
p1
(dp2
S'success'
p3
I00
sS'settings'
p4
(lp5
I20
asS'normal'
p6
I00
sS'output'
p7
S'hello\nA'
p8
sS'date'
p9
cdatetime
datetime
p10
(S'\x07\xe1\x08\x19\x0c-8\x01\xd8!'
p11
tp12
Rp13
sS'input'
p14
S''
p15
ss.(dp0
S'data'
p1
(dp2
S'success'
p3
I00
sS'settings'
p4
(lp5
I20
asS'normal'
p6
I00
sS'output'
p7
S'hello\nA'
p8
sS'date'
p9
cdatetime
datetime
p10
(S'\x07\xe1\x08\x19\x0c-8\x07\xfb\n'
p11
tp12
Rp13
sS'input'
p14
S''
p15
ss.(dp0
S'data'
p1
(dp2
S'success'
p3
I00
sS'settings'
p4
(lp5
I20
asS'normal'
p6
I00
sS'output'
p7
S'hello\nA'
p8
sS'date'
p9
cdatetime
datetime
p10
(S'\x07\xe1\x08\x19\x0c-8\x0e\x0cv'
p11
tp12
Rp13
sS'input'
p14
S''
p15
ss.(dp0
S'data'
p1
(dp2
S'success'
p3
I00
sS'settings'
p4
(lp5
I21
asS'normal'
p6
I00
sS'output'
p7
S'hello\nA'
p8
sS'date'
p9
cdatetime
datetime
p10
(S'\x07\xe1\x08\x19\x0c-9\x04\xe6\xc9'
p11
tp12
Rp13
sS'input'
p14
S''
p15
ss.(dp0
S'data'
p1
(dp2
S'success'
p3
I00
sS'settings'
p4
(lp5
I21
asS'normal'
p6
I00
sS'output'
p7
S'hello\nA'
p8
sS'date'
p9
cdatetime
datetime
p10
(S'\x07\xe1\x08\x19\x0c-9\x0c\xa8\x8f'
p11
tp12
Rp13
sS'input'
p14
S''
p15
ss.(dp0
S'data'
p1
(dp2
S'success'
p3
I00
sS'settings'
p4
(lp5
I21
asS'normal'
p6
I00
sS'output'
p7
S'hello\nA'
p8
sS'date'
p9
cdatetime
datetime
p10
(S'\x07\xe1\x08\x19\x0c-:\x03\x8b*'
p11
tp12
Rp13
sS'input'
p14
S''
p15
ss.(dp0
S'data'
p1
(dp2
S'success'
p3
I00
sS'settings'
p4
(lp5
I21
asS'normal'
p6
I00
sS'output'
p7
S'hello\nA'
p8
sS'date'
p9
cdatetime
datetime
p10
(S'\x07\xe1\x08\x19\x0c-:\t\xb6\xf2'
p11
tp12
Rp13
sS'input'
p14
S''
p15
ss.(dp0
S'data'
p1
(dp2
S'success'
p3
I00
sS'settings'
p4
(lp5
I21
asS'normal'
p6
I00
sS'output'
p7
S'hello\nA'
p8
sS'date'
p9
cdatetime
datetime
p10
(S'\x07\xe1\x08\x19\x0c-;\x00\xa7\x1b'
p11
tp12
Rp13
sS'input'
p14
S''
p15
ss.(dp0
S'data'
p1
(dp2
S'success'
p3
I00
sS'settings'
p4
(lp5
I21
asS'normal'
p6
I00
sS'output'
p7
S'hello\nA'
p8
sS'date'
p9
cdatetime
datetime
p10
(S'\x07\xe1\x08\x19\x0c-;\x06\xd0\x0c'
p11
tp12
Rp13
sS'input'
p14
S''
p15
ss.(dp0
S'data'
p1
(dp2
S'success'
p3
I00
sS'settings'
p4
(lp5
I21
asS'normal'
p6
I00
sS'output'
p7
S'hello\nA'
p8
sS'date'
p9
cdatetime
datetime
p10
(S'\x07\xe1\x08\x19\x0c-;\x0c\xff\xd1'
p11
tp12
Rp13
sS'input'
p14
S''
p15
ss.(dp0
S'data'
p1
(dp2
S'success'
p3
I00
sS'settings'
p4
(lp5
I21
asS'normal'
p6
I00
sS'output'
p7
S'hello\nA'
p8
sS'date'
p9
cdatetime
datetime
p10
(S'\x07\xe1\x08\x19\x0c.\x00\x03\xe3H'
p11
tp12
Rp13
sS'input'
p14
S''
p15
ss.(dp0
S'data'
p1
(dp2
S'success'
p3
I00
sS'settings'
p4
(lp5
I21
asS'normal'
p6
I00
sS'output'
p7
S'hello\nA'
p8
sS'date'
p9
cdatetime
datetime
p10
(S'\x07\xe1\x08\x19\x0c.\x00\n\x16\xbb'
p11
tp12
Rp13
sS'input'
p14
S''
p15
ss.(dp0
S'data'
p1
(dp2
S'success'
p3
I00
sS'settings'
p4
(lp5
I21
asS'normal'
p6
I00
sS'output'
p7
S'hello\nA'
p8
sS'date'
p9
cdatetime
datetime
p10
(S'\x07\xe1\x08\x19\x0c.\x01\x00\xd1\xd6'
p11
tp12
Rp13
sS'input'
p14
S''
p15
ss.(dp0
S'data'
p1
(dp2
S'success'
p3
I00
sS'settings'
p4
(lp5
I22
asS'normal'
p6
I00
sS'output'
p7
S'hello\nA'
p8
sS'date'
p9
cdatetime
datetime
p10
(S'\x07\xe1\x08\x19\x0c.\x01\x06\xf0m'
p11
tp12
Rp13
sS'input'
p14
S''
p15
ss.(dp0
S'data'
p1
(dp2
S'success'
p3
I00
sS'settings'
p4
(lp5
I22
asS'normal'
p6
I00
sS'output'
p7
S'hello\nA'
p8
sS'date'
p9
cdatetime
datetime
p10
(S'\x07\xe1\x08\x19\x0c.\x01\x0e\xcc@'
p11
tp12
Rp13
sS'input'
p14
S''
p15
ss.(dp0
S'data'
p1
(dp2
S'success'
p3
I00
sS'settings'
p4
(lp5
I22
asS'normal'
p6
I00
sS'output'
p7
S'hello\nA'
p8
sS'date'
p9
cdatetime
datetime
p10
(S'\x07\xe1\x08\x19\x0c.\x02\x05\x9d\x14'
p11
tp12
Rp13
sS'input'
p14
S''
p15
ss.(dp0
S'data'
p1
(dp2
S'success'
p3
I00
sS'settings'
p4
(lp5
I22
asS'normal'
p6
I00
sS'output'
p7
S'hello\nA'
p8
sS'date'
p9
cdatetime
datetime
p10
(S'\x07\xe1\x08\x19\x0c.\x02\x0b\xc5D'
p11
tp12
Rp13
sS'input'
p14
S''
p15
ss.(dp0
S'data'
p1
(dp2
S'success'
p3
I00
sS'settings'
p4
(lp5
I22
asS'normal'
p6
I00
sS'output'
p7
S'hello\nA'
p8
sS'date'
p9
cdatetime
datetime
p10
(S'\x07\xe1\x08\x19\x0c.\x03\x02\xaa\xaa'
p11
tp12
Rp13
sS'input'
p14
S''
p15
ss.(dp0
S'data'
p1
(dp2
S'success'
p3
I00
sS'settings'
p4
(lp5
I22
asS'normal'
p6
I00
sS'output'
p7
S'hello\nA'
p8
sS'date'
p9
cdatetime
datetime
p10
(S'\x07\xe1\x08\x19\x0c.\x03\x08\xe7\xdd'
p11
tp12
Rp13
sS'input'
p14
S''
p15
ss.(dp0
S'data'
p1
(dp2
S'success'
p3
I00
sS'settings'
p4
(lp5
I22
asS'normal'
p6
I00
sS'output'
p7
S'hello\nA'
p8
sS'date'
p9
cdatetime
datetime
p10
(S'\x07\xe1\x08\x19\x0c.\x03\x0f\x14\xbd'
p11
tp12
Rp13
sS'input'
p14
S''
p15
ss.(dp0
S'data'
p1
(dp2
S'success'
p3
I00
sS'settings'
p4
(lp5
I22
asS'normal'
p6
I00
sS'output'
p7
S'hello\nA'
p8
sS'date'
p9
cdatetime
datetime
p10
(S'\x07\xe1\x08\x19\x0c.\x04\x06\x089'
p11
tp12
Rp13
sS'input'
p14
S''
p15
ss.(dp0
S'data'
p1
(dp2
S'success'
p3
I00
sS'settings'
p4
(lp5
I22
asS'normal'
p6
I00
sS'output'
p7
S'hello\nA'
p8
sS'date'
p9
cdatetime
datetime
p10
(S'\x07\xe1\x08\x19\x0c.\x04\x0cEb'
p11
tp12
Rp13
sS'input'
p14
S''
p15
ss.(dp0
S'data'
p1
(dp2
S'success'
p3
I00
sS'settings'
p4
(lp5
I22
asS'normal'
p6
I00
sS'output'
p7
S'hello\nA'
p8
sS'date'
p9
cdatetime
datetime
p10
(S'\x07\xe1\x08\x19\x0c.\x05\x03&\xe8'
p11
tp12
Rp13
sS'input'
p14
S''
p15
ss.(dp0
S'data'
p1
(dp2
S'success'
p3
I00
sS'settings'
p4
(lp5
I23
asS'normal'
p6
I00
sS'output'
p7
S'hello\nA'
p8
sS'date'
p9
cdatetime
datetime
p10
(S'\x07\xe1\x08\x19\x0c.\x05\tk\x0e'
p11
tp12
Rp13
sS'input'
p14
S''
p15
ss.(dp0
S'data'
p1
(dp2
S'success'
p3
I00
sS'settings'
p4
(lp5
I23
asS'normal'
p6
I00
sS'output'
p7
S'hello\nA'
p8
sS'date'
p9
cdatetime
datetime
p10
(S'\x07\xe1\x08\x19\x0c.\x06\x02\xb2!'
p11
tp12
Rp13
sS'input'
p14
S''
p15
ss.(dp0
S'data'
p1
(dp2
S'success'
p3
I00
sS'settings'
p4
(lp5
I23
asS'normal'
p6
I00
sS'output'
p7
S'hello\nA'
p8
sS'date'
p9
cdatetime
datetime
p10
(S'\x07\xe1\x08\x19\x0c.\x06\x08\xecl'
p11
tp12
Rp13
sS'input'
p14
S''
p15
ss.(dp0
S'data'
p1
(dp2
S'success'
p3
I00
sS'settings'
p4
(lp5
I23
asS'normal'
p6
I00
sS'output'
p7
S'hello\nA'
p8
sS'date'
p9
cdatetime
datetime
p10
(S'\x07\xe1\x08\x19\x0c.\x06\x0f\x1e\xf1'
p11
tp12
Rp13
sS'input'
p14
S''
p15
ss.(dp0
S'data'
p1
(dp2
S'success'
p3
I00
sS'settings'
p4
(lp5
I23
asS'normal'
p6
I00
sS'output'
p7
S'hello\nA'
p8
sS'date'
p9
cdatetime
datetime
p10
(S'\x07\xe1\x08\x19\x0c.\x07\x06\x03\xd2'
p11
tp12
Rp13
sS'input'
p14
S''
p15
ss.(dp0
S'data'
p1
(dp2
S'success'
p3
I00
sS'settings'
p4
(lp5
I23
asS'normal'
p6
I00
sS'output'
p7
S'hello\nA'
p8
sS'date'
p9
cdatetime
datetime
p10
(S'\x07\xe1\x08\x19\x0c.\x07\x0c*\x8b'
p11
tp12
Rp13
sS'input'
p14
S''
p15
ss.(dp0
S'data'
p1
(dp2
S'success'
p3
I00
sS'settings'
p4
(lp5
I23
asS'normal'
p6
I00
sS'output'
p7
S'hello\nA'
p8
sS'date'
p9
cdatetime
datetime
p10
(S'\x07\xe1\x08\x19\x0c.\x08\x03\x10\xa7'
p11
tp12
Rp13
sS'input'
p14
S''
p15
ss.(dp0
S'data'
p1
(dp2
S'success'
p3
I00
sS'settings'
p4
(lp5
I23
asS'normal'
p6
I00
sS'output'
p7
S'hello\nA'
p8
sS'date'
p9
cdatetime
datetime
p10
(S'\x07\xe1\x08\x19\x0c.\x08\tX~'
p11
tp12
Rp13
sS'input'
p14
S''
p15
ss.(dp0
S'data'
p1
(dp2
S'success'
p3
I00
sS'settings'
p4
(lp5
I23
asS'normal'
p6
I00
sS'output'
p7
S'hello\nA'
p8
sS'date'
p9
cdatetime
datetime
p10
(S'\x07\xe1\x08\x19\x0c.\t\x00\x06\xa7'
p11
tp12
Rp13
sS'input'
p14
S''
p15
ss.(dp0
S'data'
p1
(dp2
S'success'
p3
I00
sS'settings'
p4
(lp5
I23
asS'normal'
p6
I00
sS'output'
p7
S'hello\nA'
p8
sS'date'
p9
cdatetime
datetime
p10
(S'\x07\xe1\x08\x19\x0c.\t\x05\xce:'
p11
tp12
Rp13
sS'input'
p14
S''
p15
ss.(dp0
S'data'
p1
(dp2
S'success'
p3
I01
sS'settings'
p4
(lp5
I24
asS'normal'
p6
I00
sS'output'
p7
S'hello\nA1234'
p8
sS'date'
p9
cdatetime
datetime
p10
(S'\x07\xe1\x08\x19\x0c.\t\x0b\xa6\x91'
p11
tp12
Rp13
sS'input'
p14
S''
p15
ss.(dp0
S'data'
p1
(dp2
S'success'
p3
I01
sS'settings'
p4
(lp5
I24
asS'normal'
p6
I00
sS'output'
p7
S'hello\nA1234'
p8
sS'date'
p9
cdatetime
datetime
p10
(S'\x07\xe1\x08\x19\x0c.\n\x04t('
p11
tp12
Rp13
sS'input'
p14
S''
p15
ss.(dp0
S'data'
p1
(dp2
S'success'
p3
I01
sS'settings'
p4
(lp5
I24
asS'normal'
p6
I00
sS'output'
p7
S'hello\nA1234'
p8
sS'date'
p9
cdatetime
datetime
p10
(S'\x07\xe1\x08\x19\x0c.\n\n\xb1\xfd'
p11
tp12
Rp13
sS'input'
p14
S''
p15
ss.(dp0
S'data'
p1
(dp2
S'success'
p3
I01
sS'settings'
p4
(lp5
I24
asS'normal'
p6
I00
sS'output'
p7
S'hello\nA1234'
p8
sS'date'
p9
cdatetime
datetime
p10
(S'\x07\xe1\x08\x19\x0c.\x0b\x01\x96\xb9'
p11
tp12
Rp13
sS'input'
p14
S''
p15
ss.(dp0
S'data'
p1
(dp2
S'success'
p3
I01
sS'settings'
p4
(lp5
I24
asS'normal'
p6
I00
sS'output'
p7
S'hello\nA1234'
p8
sS'date'
p9
cdatetime
datetime
p10
(S'\x07\xe1\x08\x19\x0c.\x0b\x07\xbc\x97'
p11
tp12
Rp13
sS'input'
p14
S''
p15
ss.(dp0
S'data'
p1
(dp2
S'success'
p3
I01
sS'settings'
p4
(lp5
I24
asS'normal'
p6
I00
sS'output'
p7
S'hello\nA1234'
p8
sS'date'
p9
cdatetime
datetime
p10
(S'\x07\xe1\x08\x19\x0c.\x0b\r\xebD'
p11
tp12
Rp13
sS'input'
p14
S''
p15
ss.(dp0
S'data'
p1
(dp2
S'success'
p3
I01
sS'settings'
p4
(lp5
I24
asS'normal'
p6
I00
sS'output'
p7
S'hello\nA1234'
p8
sS'date'
p9
cdatetime
datetime
p10
(S'\x07\xe1\x08\x19\x0c.\x0c\x04\xd9\x07'
p11
tp12
Rp13
sS'input'
p14
S''
p15
ss.(dp0
S'data'
p1
(dp2
S'success'
p3
I01
sS'settings'
p4
(lp5
I24
asS'normal'
p6
I00
sS'output'
p7
S'hello\nA1234'
p8
sS'date'
p9
cdatetime
datetime
p10
(S'\x07\xe1\x08\x19\x0c.\x0c\x0b\x19{'
p11
tp12
Rp13
sS'input'
p14
S''
p15
ss.(dp0
S'data'
p1
(dp2
S'success'
p3
I01
sS'settings'
p4
(lp5
I24
asS'normal'
p6
I00
sS'output'
p7
S'hello\nA1234'
p8
sS'date'
p9
cdatetime
datetime
p10
(S'\x07\xe1\x08\x19\x0c.\r\x02\x11\xbc'
p11
tp12
Rp13
sS'input'
p14
S''
p15
ss.(dp0
S'data'
p1
(dp2
S'success'
p3
I01
sS'settings'
p4
(lp5
I24
asS'normal'
p6
I00
sS'output'
p7
S'hello\nA1234'
p8
sS'date'
p9
cdatetime
datetime
p10
(S'\x07\xe1\x08\x19\x0c.\r\x08U\xc5'
p11
tp12
Rp13
sS'input'
p14
S''
p15
ss.(dp0
S'data'
p1
(dp2
S'success'
p3
I00
sS'settings'
p4
(lp5
I25
asS'normal'
p6
I00
sS'output'
p7
S'hello\nA'
p8
sS'date'
p9
cdatetime
datetime
p10
(S'\x07\xe1\x08\x19\x0c.\r\x0e\x94\x86'
p11
tp12
Rp13
sS'input'
p14
S''
p15
ss.(dp0
S'data'
p1
(dp2
S'success'
p3
I00
sS'settings'
p4
(lp5
I25
asS'normal'
p6
I00
sS'output'
p7
S'hello\nA'
p8
sS'date'
p9
cdatetime
datetime
p10
(S'\x07\xe1\x08\x19\x0c.\x0e\x07}S'
p11
tp12
Rp13
sS'input'
p14
S''
p15
ss.(dp0
S'data'
p1
(dp2
S'success'
p3
I00
sS'settings'
p4
(lp5
I25
asS'normal'
p6
I00
sS'output'
p7
S'hello\nA'
p8
sS'date'
p9
cdatetime
datetime
p10
(S'\x07\xe1\x08\x19\x0c.\x0e\r\xb6N'
p11
tp12
Rp13
sS'input'
p14
S''
p15
ss.(dp0
S'data'
p1
(dp2
S'success'
p3
I00
sS'settings'
p4
(lp5
I25
asS'normal'
p6
I00
sS'output'
p7
S'hello\nA'
p8
sS'date'
p9
cdatetime
datetime
p10
(S'\x07\xe1\x08\x19\x0c.\x0f\x04\xa2\x12'
p11
tp12
Rp13
sS'input'
p14
S''
p15
ss.(dp0
S'data'
p1
(dp2
S'success'
p3
I00
sS'settings'
p4
(lp5
I25
asS'normal'
p6
I00
sS'output'
p7
S'hello\nA'
p8
sS'date'
p9
cdatetime
datetime
p10
(S'\x07\xe1\x08\x19\x0c.\x0f\n\xe4\x9b'
p11
tp12
Rp13
sS'input'
p14
S''
p15
ss.(dp0
S'data'
p1
(dp2
S'success'
p3
I00
sS'settings'
p4
(lp5
I25
asS'normal'
p6
I00
sS'output'
p7
S'hello\nA'
p8
sS'date'
p9
cdatetime
datetime
p10
(S'\x07\xe1\x08\x19\x0c.\x10\x01\xd1/'
p11
tp12
Rp13
sS'input'
p14
S''
p15
ss.(dp0
S'data'
p1
(dp2
S'success'
p3
I00
sS'settings'
p4
(lp5
I25
asS'normal'
p6
I00
sS'output'
p7
S'hello\nA'
p8
sS'date'
p9
cdatetime
datetime
p10
(S'\x07\xe1\x08\x19\x0c.\x10\x08\x11\xc8'
p11
tp12
Rp13
sS'input'
p14
S''
p15
ss.(dp0
S'data'
p1
(dp2
S'success'
p3
I00
sS'settings'
p4
(lp5
I25
asS'normal'
p6
I00
sS'output'
p7
S'hello\nA'
p8
sS'date'
p9
cdatetime
datetime
p10
(S'\x07\xe1\x08\x19\x0c.\x10\x0eP\xf6'
p11
tp12
Rp13
sS'input'
p14
S''
p15
ss.(dp0
S'data'
p1
(dp2
S'success'
p3
I00
sS'settings'
p4
(lp5
I25
asS'normal'
p6
I00
sS'output'
p7
S'hello\nA'
p8
sS'date'
p9
cdatetime
datetime
p10
(S'\x07\xe1\x08\x19\x0c.\x11\x05Bi'
p11
tp12
Rp13
sS'input'
p14
S''
p15
ss.(dp0
S'data'
p1
(dp2
S'success'
p3
I00
sS'settings'
p4
(lp5
I25
asS'normal'
p6
I00
sS'output'
p7
S'hello\nA'
p8
sS'date'
p9
cdatetime
datetime
p10
(S'\x07\xe1\x08\x19\x0c.\x11\x0b\x8b{'
p11
tp12
Rp13
sS'input'
p14
S''
p15
ss.(dp0
S'data'
p1
(dp2
S'success'
p3
I00
sS'settings'
p4
(lp5
I26
asS'normal'
p6
I00
sS'output'
p7
S'hello\nA'
p8
sS'date'
p9
cdatetime
datetime
p10
(S'\x07\xe1\x08\x19\x0c.\x12\x02\xb7U'
p11
tp12
Rp13
sS'input'
p14
S''
p15
ss.(dp0
S'data'
p1
(dp2
S'success'
p3
I00
sS'settings'
p4
(lp5
I26
asS'normal'
p6
I00
sS'output'
p7
S'hello\nA'
p8
sS'date'
p9
cdatetime
datetime
p10
(S'\x07\xe1\x08\x19\x0c.\x12\x0bQ\xb1'
p11
tp12
Rp13
sS'input'
p14
S''
p15
ss.(dp0
S'data'
p1
(dp2
S'success'
p3
I00
sS'settings'
p4
(lp5
I26
asS'normal'
p6
I00
sS'output'
p7
S'hello\nA'
p8
sS'date'
p9
cdatetime
datetime
p10
(S'\x07\xe1\x08\x19\x0c.\x13\x02bF'
p11
tp12
Rp13
sS'input'
p14
S''
p15
ss.