(dp0
S'notes'
p1
S''
p2
s.(dp0
S'commands'
p1
(lp2
V['Glitch Module', 'Ext Trigger Offset']
p3
as.(dp0
S'data'
p1
(dp2
S'success'
p3
I00
sS'settings'
p4
(lp5
I53
asS'normal'
p6
I00
sS'output'
p7
S'Denied\nPassword:'
p8
sS'date'
p9
cdatetime
datetime
p10
(S'\x07\xe1\x08\x19\r\x13\x18\x0b\xea1'
p11
tp12
Rp13
sS'input'
p14
S''
p15
ss.(dp0
S'data'
p1
(dp2
S'success'
p3
I00
sS'settings'
p4
(lp5
I54
asS'normal'
p6
I00
sS'output'
p7
S'Denied\nhello\nPassword:'
p8
sS'date'
p9
cdatetime
datetime
p10
(S'\x07\xe1\x08\x19\r\x13\x19\x03+\xb6'
p11
tp12
Rp13
sS'input'
p14
S''
p15
ss.(dp0
S'data'
p1
(dp2
S'success'
p3
I00
sS'settings'
p4
(lp5
I55
asS'normal'
p6
I00
sS'output'
p7
S'Denied\nPassword:'
p8
sS'date'
p9
cdatetime
datetime
p10
(S'\x07\xe1\x08\x19\r\x13\x19\t=\x9f'
p11
tp12
Rp13
sS'input'
p14
S''
p15
ss.(dp0
S'data'
p1
(dp2
S'success'
p3
I00
sS'settings'
p4
(lp5
I56
asS'normal'
p6
I00
sS'output'
p7
S'Denied\nhello\nPassword:'
p8
sS'date'
p9
cdatetime
datetime
p10
(S'\x07\xe1\x08\x19\r\x13\x1a\x00\x10]'
p11
tp12
Rp13
sS'input'
p14
S''
p15
ss.(dp0
S'data'
p1
(dp2
S'success'
p3
I00
sS'settings'
p4
(lp5
I57
asS'normal'
p6
I00
sS'output'
p7
S'Denied\nPassword:'
p8
sS'date'
p9
cdatetime
datetime
p10
(S'\x07\xe1\x08\x19\r\x13\x1a\x06:$'
p11
tp12
Rp13
sS'input'
p14
S''
p15
ss.(dp0
S'data'
p1
(dp2
S'success'
p3
I00
sS'settings'
p4
(lp5
I58
asS'normal'
p6
I00
sS'output'
p7
S'Denied\nPassword:'
p8
sS'date'
p9
cdatetime
datetime
p10
(S'\x07\xe1\x08\x19\r\x13\x1a\x0cR\x84'
p11
tp12
Rp13
sS'input'
p14
S''
p15
ss.(dp0
S'data'
p1
(dp2
S'success'
p3
I00
sS'settings'
p4
(lp5
I59
asS'normal'
p6
I00
sS'output'
p7
S'Denied\nPassword:'
p8
sS'date'
p9
cdatetime
datetime
p10
(S'\x07\xe1\x08\x19\r\x13\x1b\x03 \xd1'
p11
tp12
Rp13
sS'input'
p14
S''
p15
ss.(dp0
S'data'
p1
(dp2
S'success'
p3
I00
sS'settings'
p4
(lp5
I60
asS'normal'
p6
I00
sS'output'
p7
S'Denied\nhello\nPassword:'
p8
sS'date'
p9
cdatetime
datetime
p10
(S'\x07\xe1\x08\x19\r\x13\x1b\t\xb0\x7f'
p11
tp12
Rp13
sS'input'
p14
S''
p15
ss.(dp0
S'data'
p1
(dp2
S'success'
p3
I00
sS'settings'
p4
(lp5
I61
asS'normal'
p6
I00
sS'output'
p7
S'Denied\nPassword:'
p8
sS'date'
p9
cdatetime
datetime
p10
(S'\x07\xe1\x08\x19\r\x13\x1c\x00R\xc3'
p11
tp12
Rp13
sS'input'
p14
S''
p15
ss.(dp0
S'data'
p1
(dp2
S'success'
p3
I00
sS'settings'
p4
(lp5
I62
asS'normal'
p6
I00
sS'output'
p7
S'Denied\nhello\nPassword:'
p8
sS'date'
p9
cdatetime
datetime
p10
(S'\x07\xe1\x08\x19\r\x13\x1c\x06d\x82'
p11
tp12
Rp13
sS'input'
p14
S''
p15
ss.(dp0
S'data'
p1
(dp2
S'success'
p3
I00
sS'settings'
p4
(lp5
I63
asS'normal'
p6
I00
sS'output'
p7
S'Denied\nPassword:'
p8
sS'date'
p9
cdatetime
datetime
p10
(S'\x07\xe1\x08\x19\r\x13\x1c\x0csH'
p11
tp12
Rp13
sS'input'
p14
S''
p15
ss.(dp0
S'data'
p1
(dp2
S'success'
p3
I00
sS'settings'
p4
(lp5
I64
asS'normal'
p6
I00
sS'output'
p7
S'Denied\nhello\nPassword:'
p8
sS'date'
p9
cdatetime
datetime
p10
(S'\x07\xe1\x08\x19\r\x13\x1d\x03y\xfd'
p11
tp12
Rp13
sS'input'
p14
S''
p15
ss.(dp0
S'data'
p1
(dp2
S'success'
p3
I00
sS'settings'
p4
(lp5
I65
asS'normal'
p6
I00
sS'output'
p7
S'Denied\nPassword:'
p8
sS'date'
p9
cdatetime
datetime
p10
(S'\x07\xe1\x08\x19\r\x13\x1d\nYb'
p11
tp12
Rp13
sS'input'
p14
S''
p15
ss.(dp0
S'data'
p1
(dp2
S'success'
p3
I00
sS'settings'
p4
(lp5
I66
asS'normal'
p6
I00
sS'output'
p7
S'Password:'
p8
sS'date'
p9
cdatetime
datetime
p10
(S'\x07\xe1\x08\x19\r\x13\x1e\x01\x18\x11'
p11
tp12
Rp13
sS'input'
p14
S''
p15
ss.(dp0
S'data'
p1
(dp2
S'success'
p3
I00
sS'settings'
p4
(lp5
I67
asS'normal'
p6
I00
sS'output'
p7
S'hello\nPassword:'
p8
sS'date'
p9
cdatetime
datetime
p10
(S'\x07\xe1\x08\x19\r\x13\x1e\x07\x85.'
p11
tp12
Rp13
sS'input'
p14
S''
p15
ss.(dp0
S'data'
p1
(dp2
S'success'
p3
I00
sS'settings'
p4
(lp5
I68
asS'normal'
p6
I00
sS'output'
p7
S'Denied\nPassword:'
p8
sS'date'
p9
cdatetime
datetime
p10
(S'\x07\xe1\x08\x19\r\x13\x1e\r\xc9\xcd'
p11
tp12
Rp13
sS'input'
p14
S''
p15
ss.(dp0
S'data'
p1
(dp2
S'success'
p3
I00
sS'settings'
p4
(lp5
I69
asS'normal'
p6
I00
sS'output'
p7
S'Denied\nhello\nPassword:'
p8
sS'date'
p9
cdatetime
datetime
p10
(S'\x07\xe1\x08\x19\r\x13\x1f\x04\xdcC'
p11
tp12
Rp13
sS'input'
p14
S''
p15
ss.(dp0
S'data'
p1
(dp2
S'success'
p3
I00
sS'settings'
p4
(lp5
I70
asS'normal'
p6
I00
sS'output'
p7
S'Denied\nhello\nPassword:'
p8
sS'date'
p9
cdatetime
datetime
p10
(S'\x07\xe1\x08\x19\r\x13\x1f\x0b8$'
p11
tp12
Rp13
sS'input'
p14
S''
p15
ss.(dp0
S'data'
p1
(dp2
S'success'
p3
I00
sS'settings'
p4
(lp5
I71
asS'normal'
p6
I00
sS'output'
p7
S'\x8a\x01\x96\x01\x96\x01\x96\x01\x96\x01\x96\x01\x96\x01\x96\x01\x96\x01\x96\x01\x96\x01\x96\x01\x96\x01\x96\x01\x96\x01\x96\x01\x96\x01\x96\x01\x96\x01\x96\x01\x96\x01\x96\x01\x96\x01\x96\x01\x96\x01\x96\x01\x96\x01\x96\x01\x96\x01\x96\x01\x96\x01\x96\x01'
p8
sS'date'
p9
cdatetime
datetime
p10
(S'\x07\xe1\x08\x19\r\x13\x1f\x0c\xbf{'
p11
tp12
Rp13
sS'input'
p14
S''
p15
ss.(dp0
S'data'
p1
(dp2
S'success'
p3
I00
sS'settings'
p4
(lp5
I72
asS'normal'
p6
I00
sS'output'
p7
S'-Denied\nPassword:'
p8
sS'date'
p9
cdatetime
datetime
p10
(S'\x07\xe1\x08\x19\r\x13 \x03UC'
p11
tp12
Rp13
sS'input'
p14
S''
p15
ss.(dp0
S'data'
p1
(dp2
S'success'
p3
I00
sS'settings'
p4
(lp5
I73
asS'normal'
p6
I00
sS'output'
p7
S'Denied\nPassword:'
p8
sS'date'
p9
cdatetime
datetime
p10
(S'\x07\xe1\x08\x19\r\x13 \t\x9f^'
p11
tp12
Rp13
sS'input'
p14
S''
p15
ss.(dp0
S'data'
p1
(dp2
S'success'
p3
I00
sS'settings'
p4
(lp5
I74
asS'normal'
p6
I00
sS'output'
p7
S'Denied\nPassword:'
p8
sS'date'
p9
cdatetime
datetime
p10
(S'\x07\xe1\x08\x19\r\x13!\x00\xc0\xc7'
p11
tp12
Rp13
sS'input'
p14
S''
p15
ss.(dp0
S'data'
p1
(dp2
S'success'
p3
I00
sS'settings'
p4
(lp5
I75
asS'normal'
p6
I00
sS'output'
p7
S'Denied\nPassword:'
p8
sS'date'
p9
cdatetime
datetime
p10
(S'\x07\xe1\x08\x19\r\x13!\x06\xf4\xbf'
p11
tp12
Rp13
sS'input'
p14
S''
p15
ss.(dp0
S'data'
p1
(dp2
S'success'
p3
I00
sS'settings'
p4
(lp5
I76
asS'normal'
p6
I00
sS'output'
p7
S'enied\nPassword:'
p8
sS'date'
p9
cdatetime
datetime
p10
(S'\x07\xe1\x08\x19\r\x13!\r73'
p11
tp12
Rp13
sS'input'
p14
S''
p15
ss.(dp0
S'data'
p1
(dp2
S'success'
p3
I00
sS'settings'
p4
(lp5
I77
asS'normal'
p6
I00
sS'output'
p7
S'hello\nPassword:'
p8
sS'date'
p9
cdatetime
datetime
p10
(S'\x07\xe1\x08\x19\r\x13"\x04@q'
p11
tp12
Rp13
sS'input'
p14
S''
p15
ss.(dp0
S'data'
p1
(dp2
S'success'
p3
I00
sS'settings'
p4
(lp5
I78
asS'normal'
p6
I00
sS'output'
p7
S'Denied\nPassword:'
p8
sS'date'
p9
cdatetime
datetime
p10
(S'\x07\xe1\x08\x19\r\x13"\nz\xcc'
p11
tp12
Rp13
sS'input'
p14
S''
p15
ss.(dp0
S'data'
p1
(dp2
S'success'
p3
I00
sS'settings'
p4
(lp5
I79
asS'normal'
p6
I00
sS'output'
p7
S'Denied\nPassword:'
p8
sS'date'
p9
cdatetime
datetime
p10
(S'\x07\xe1\x08\x19\r\x13#\x01\x8b\xad'
p11
tp12
Rp13
sS'input'
p14
S''
p15
ss.(dp0
S'data'
p1
(dp2
S'success'
p3
I00
sS'settings'
p4
(lp5
I80
asS'normal'
p6
I00
sS'output'
p7
S'Denied\nPassword:'
p8
sS'date'
p9
cdatetime
datetime
p10
(S'\x07\xe1\x08\x19\r\x13#\x07\xe1\x8d'
p11
tp12
Rp13
sS'input'
p14
S''
p15
ss.(dp0
S'data'
p1
(dp2
S'success'
p3
I00
sS'settings'
p4
(lp5
I81
asS'normal'
p6
I00
sS'output'
p7
S'Denied\nPassword:'
p8
sS'date'
p9
cdatetime
datetime
p10
(S'\x07\xe1\x08\x19\r\x13#\x0e2`'
p11
tp12
Rp13
sS'input'
p14
S''
p15
ss.(dp0
S'data'
p1
(dp2
S'success'
p3
I00
sS'settings'
p4
(lp5
I82
asS'normal'
p6
I00
sS'output'
p7
S'Denied\nPassword:'
p8
sS'date'
p9
cdatetime
datetime
p10
(S'\x07\xe1\x08\x19\r\x13$\x05W\xc9'
p11
tp12
Rp13
sS'input'
p14
S''
p15
ss.(dp0
S'data'
p1
(dp2
S'success'
p3
I00
sS'settings'
p4
(lp5
I83
asS'normal'
p6
I00
sS'output'
p7
S'Denied\nPassword:'
p8
sS'date'
p9
cdatetime
datetime
p10
(S'\x07\xe1\x08\x19\r\x13$\x0b\x93c'
p11
tp12
Rp13
sS'input'
p14
S''
p15
ss.(dp0
S'data'
p1
(dp2
S'success'
p3
I00
sS'settings'
p4
(lp5
I84
asS'normal'
p6
I00
sS'output'
p7
S'enied\nPassword:'
p8
sS'date'
p9
cdatetime
datetime
p10
(S'\x07\xe1\x08\x19\r\x13%\x02\xa0\xbc'
p11
tp12
Rp13
sS'input'
p14
S''
p15
ss.(dp0
S'data'
p1
(dp2
S'success'
p3
I00
sS'settings'
p4
(lp5
I85
asS'normal'
p6
I00
sS'output'
p7
S'enied\nPassword:'
p8
sS'date'
p9
cdatetime
datetime
p10
(S'\x07\xe1\x08\x19\r\x13%\x08\xe5\xe1'
p11
tp12
Rp13
sS'input'
p14
S''
p15
ss.(dp0
S'data'
p1
(dp2
S'success'
p3
I00
sS'settings'
p4
(lp5
I86
asS'normal'
p6
I00
sS'output'
p7
S'Denied\nPassword:'
p8
sS'date'
p9
cdatetime
datetime
p10
(S'\x07\xe1\x08\x19\r\x13%\x0f\x13\xc7'
p11
tp12
Rp13
sS'input'
p14
S''
p15
ss.(dp0
S'data'
p1
(dp2
S'success'
p3
I00
sS'settings'
p4
(lp5
I87
asS'normal'
p6
I00
sS'output'
p7
S'Denied\nPassword:'
p8
sS'date'
p9
cdatetime
datetime
p10
(S'\x07\xe1\x08\x19\r\x13&\x064\x9f'
p11
tp12
Rp13
sS'input'
p14
S''
p15
ss.(dp0
S'data'
p1
(dp2
S'success'
p3
I00
sS'settings'
p4
(lp5
I88
asS'normal'
p6
I00
sS'output'
p7
S'Denied\nPassword:'
p8
sS'date'
p9
cdatetime
datetime
p10
(S'\x07\xe1\x08\x19\r\x13&\x0c\xc3A'
p11
tp12
Rp13
sS'input'
p14
S''
p15
ss.(dp0
S'data'
p1
(dp2
S'success'
p3
I00
sS'settings'
p4
(lp5
I89
asS'normal'
p6
I00
sS'output'
p7
S'Denied\nPassword:'
p8
sS'date'
p9
cdatetime
datetime
p10
(S"\x07\xe1\x08\x19\r\x13'\x03\xc6\x0e"
p11
tp12
Rp13
sS'input'
p14
S''
p15
ss.(dp0
S'data'
p1
(dp2
S'success'
p3
I00
sS'settings'
p4
(lp5
I90
asS'normal'
p6
I00
sS'output'
p7
S'Denied\nPassword:'
p8
sS'date'
p9
cdatetime
datetime
p10
(S"\x07\xe1\x08\x19\r\x13'\n:_"
p11
tp12
Rp13
sS'input'
p14
S''
p15
ss.(dp0
S'data'
p1
(dp2
S'success'
p3
I00
sS'settings'
p4
(lp5
I91
asS'normal'
p6
I00
sS'output'
p7
S'DPassword:'
p8
sS'date'
p9
cdatetime
datetime
p10
(S'\x07\xe1\x08\x19\r\x13(\x01v\x8e'
p11
tp12
Rp13
sS'input'
p14
S''
p15
ss.(dp0
S'data'
p1
(dp2
S'success'
p3
I00
sS'settings'
p4
(lp5
I92
asS'normal'
p6
I00
sS'output'
p7
S'Denied\nPassword:'
p8
sS'date'
p9
cdatetime
datetime
p10
(S'\x07\xe1\x08\x19\r\x13(\x07\xe5J'
p11
tp12
Rp13
sS'input'
p14
S''
p15
ss.(dp0
S'data'
p1
(dp2
S'success'
p3
I00
sS'settings'
p4
(lp5
I93
asS'normal'
p6
I00
sS'output'
p7
S'DDenied\nPassword:'
p8
sS'date'
p9
cdatetime
datetime
p10
(S'\x07\xe1\x08\x19\r\x13(\x0e\x8b\xff'
p11
tp12
Rp13
sS'input'
p14
S''
p15
ss.