(dp0
S'notes'
p1
S''
p2
s.(dp0
S'commands'
p1
(lp2
V['Glitch Module', 'Ext Trigger Offset']
p3
as.(dp0
S'data'
p1
(dp2
S'success'
p3
I00
sS'settings'
p4
(lp5
I0
asS'normal'
p6
I01
sS'output'
p7
S'Denied\nPassword:'
p8
sS'date'
p9
cdatetime
datetime
p10
(S'\x07\xe1\x08\x19\x10\x0c\x10\x03=b'
p11
tp12
Rp13
sS'input'
p14
S''
p15
ss.(dp0
S'data'
p1
(dp2
S'success'
p3
I00
sS'settings'
p4
(lp5
I1
asS'normal'
p6
I01
sS'output'
p7
S'Denied\nPassword:'
p8
sS'date'
p9
cdatetime
datetime
p10
(S'\x07\xe1\x08\x19\x10\x0c\x10\t\xe6\x10'
p11
tp12
Rp13
sS'input'
p14
S''
p15
ss.(dp0
S'data'
p1
(dp2
S'success'
p3
I00
sS'settings'
p4
(lp5
I2
asS'normal'
p6
I01
sS'output'
p7
S'Denied\nPassword:'
p8
sS'date'
p9
cdatetime
datetime
p10
(S'\x07\xe1\x08\x19\x10\x0c\x11\x00\xe1\x9d'
p11
tp12
Rp13
sS'input'
p14
S''
p15
ss.(dp0
S'data'
p1
(dp2
S'success'
p3
I00
sS'settings'
p4
(lp5
I3
asS'normal'
p6
I01
sS'output'
p7
S'Denied\nPassword:'
p8
sS'date'
p9
cdatetime
datetime
p10
(S'\x07\xe1\x08\x19\x10\x0c\x11\x06\xe1\xd7'
p11
tp12
Rp13
sS'input'
p14
S''
p15
ss.(dp0
S'data'
p1
(dp2
S'success'
p3
I00
sS'settings'
p4
(lp5
I4
asS'normal'
p6
I01
sS'output'
p7
S'Denied\nPassword:'
p8
sS'date'
p9
cdatetime
datetime
p10
(S'\x07\xe1\x08\x19\x10\x0c\x11\r\x1d#'
p11
tp12
Rp13
sS'input'
p14
S''
p15
ss.(dp0
S'data'
p1
(dp2
S'success'
p3
I00
sS'settings'
p4
(lp5
I5
asS'normal'
p6
I01
sS'output'
p7
S'Denied\nPassword:'
p8
sS'date'
p9
cdatetime
datetime
p10
(S'\x07\xe1\x08\x19\x10\x0c\x12\x03\xf5\xa3'
p11
tp12
Rp13
sS'input'
p14
S''
p15
ss.(dp0
S'data'
p1
(dp2
S'success'
p3
I00
sS'settings'
p4
(lp5
I6
asS'normal'
p6
I01
sS'output'
p7
S'Denied\nPassword:'
p8
sS'date'
p9
cdatetime
datetime
p10
(S'\x07\xe1\x08\x19\x10\x0c\x12\t\xcd\x03'
p11
tp12
Rp13
sS'input'
p14
S''
p15
ss.(dp0
S'data'
p1
(dp2
S'success'
p3
I00
sS'settings'
p4
(lp5
I7
asS'normal'
p6
I01
sS'output'
p7
S'Denied\nPassword:'
p8
sS'date'
p9
cdatetime
datetime
p10
(S'\x07\xe1\x08\x19\x10\x0c\x13\x00\xa14'
p11
tp12
Rp13
sS'input'
p14
S''
p15
ss.(dp0
S'data'
p1
(dp2
S'success'
p3
I00
sS'settings'
p4
(lp5
I8
asS'normal'
p6
I01
sS'output'
p7
S'Denied\nPassword:'
p8
sS'date'
p9
cdatetime
datetime
p10
(S'\x07\xe1\x08\x19\x10\x0c\x13\x06\xbd\x83'
p11
tp12
Rp13
sS'input'
p14
S''
p15
ss.(dp0
S'data'
p1
(dp2
S'success'
p3
I00
sS'settings'
p4
(lp5
I9
asS'normal'
p6
I01
sS'output'
p7
S'Denied\nPassword:'
p8
sS'date'
p9
cdatetime
datetime
p10
(S'\x07\xe1\x08\x19\x10\x0c\x13\x0c\xde4'
p11
tp12
Rp13
sS'input'
p14
S''
p15
ss.(dp0
S'data'
p1
(dp2
S'success'
p3
I00
sS'settings'
p4
(lp5
I10
asS'normal'
p6
I01
sS'output'
p7
S'Denied\nPassword:'
p8
sS'date'
p9
cdatetime
datetime
p10
(S'\x07\xe1\x08\x19\x10\x0c\x14\x03\xe0\xdd'
p11
tp12
Rp13
sS'input'
p14
S''
p15
ss.(dp0
S'data'
p1
(dp2
S'success'
p3
I01
sS'settings'
p4
(lp5
I11
asS'normal'
p6
I00
sS'output'
p7
S'Welcome\nPassword:'
p8
sS'date'
p9
cdatetime
datetime
p10
(S'\x07\xe1\x08\x19\x10\x0c\x14\n\x1c\x1a'
p11
tp12
Rp13
sS'input'
p14
S''
p15
ss.(dp0
S'data'
p1
(dp2
S'success'
p3
I00
sS'settings'
p4
(lp5
I12
asS'normal'
p6
I01
sS'output'
p7
S'Denied\nPassword:'
p8
sS'date'
p9
cdatetime
datetime
p10
(S'\x07\xe1\x08\x19\x10\x0c\x15\x02\x0e\xd3'
p11
tp12
Rp13
sS'input'
p14
S''
p15
ss.(dp0
S'data'
p1
(dp2
S'success'
p3
I00
sS'settings'
p4
(lp5
I13
asS'normal'
p6
I01
sS'output'
p7
S'Denied\nPassword:'
p8
sS'date'
p9
cdatetime
datetime
p10
(S'\x07\xe1\x08\x19\x10\x0c\x15\x08\xa9,'
p11
tp12
Rp13
sS'input'
p14
S''
p15
ss.(dp0
S'data'
p1
(dp2
S'success'
p3
I00
sS'settings'
p4
(lp5
I14
asS'normal'
p6
I01
sS'output'
p7
S'Denied\nPassword:'
p8
sS'date'
p9
cdatetime
datetime
p10
(S'\x07\xe1\x08\x19\x10\x0c\x15\x0f7\xb4'
p11
tp12
Rp13
sS'input'
p14
S''
p15
ss.(dp0
S'data'
p1
(dp2
S'success'
p3
I00
sS'settings'
p4
(lp5
I15
asS'normal'
p6
I01
sS'output'
p7
S'Denied\nPassword:'
p8
sS'date'
p9
cdatetime
datetime
p10
(S'\x07\xe1\x08\x19\x10\x0c\x16\x06Q\xee'
p11
tp12
Rp13
sS'input'
p14
S''
p15
ss.(dp0
S'data'
p1
(dp2
S'success'
p3
I00
sS'settings'
p4
(lp5
I16
asS'normal'
p6
I01
sS'output'
p7
S'Denied\nPassword:'
p8
sS'date'
p9
cdatetime
datetime
p10
(S'\x07\xe1\x08\x19\x10\x0c\x16\x0cw\xb2'
p11
tp12
Rp13
sS'input'
p14
S''
p15
ss.(dp0
S'data'
p1
(dp2
S'success'
p3
I00
sS'settings'
p4
(lp5
I17
asS'normal'
p6
I01
sS'output'
p7
S'Denied\nPassword:'
p8
sS'date'
p9
cdatetime
datetime
p10
(S'\x07\xe1\x08\x19\x10\x0c\x17\x03L\xef'
p11
tp12
Rp13
sS'input'
p14
S''
p15
ss.(dp0
S'data'
p1
(dp2
S'success'
p3
I00
sS'settings'
p4
(lp5
I18
asS'normal'
p6
I01
sS'output'
p7
S'Denied\nPassword:'
p8
sS'date'
p9
cdatetime
datetime
p10
(S'\x07\xe1\x08\x19\x10\x0c\x17\t\xa0\xff'
p11
tp12
Rp13
sS'input'
p14
S''
p15
ss.(dp0
S'data'
p1
(dp2
S'success'
p3
I00
sS'settings'
p4
(lp5
I19
asS'normal'
p6
I01
sS'output'
p7
S'Denied\nPassword:'
p8
sS'date'
p9
cdatetime
datetime
p10
(S'\x07\xe1\x08\x19\x10\x0c\x18\x00\x8d\x9a'
p11
tp12
Rp13
sS'input'
p14
S''
p15
ss.(dp0
S'data'
p1
(dp2
S'success'
p3
I00
sS'settings'
p4
(lp5
I20
asS'normal'
p6
I01
sS'output'
p7
S'Denied\nPassword:'
p8
sS'date'
p9
cdatetime
datetime
p10
(S'\x07\xe1\x08\x19\x10\x0c\x18\x06\xe9\xf5'
p11
tp12
Rp13
sS'input'
p14
S''
p15
ss.(dp0
S'data'
p1
(dp2
S'success'
p3
I00
sS'settings'
p4
(lp5
I21
asS'normal'
p6
I01
sS'output'
p7
S'Denied\nPassword:'
p8
sS'date'
p9
cdatetime
datetime
p10
(S'\x07\xe1\x08\x19\x10\x0c\x18\rFQ'
p11
tp12
Rp13
sS'input'
p14
S''
p15
ss.(dp0
S'data'
p1
(dp2
S'success'
p3
I00
sS'settings'
p4
(lp5
I22
asS'normal'
p6
I01
sS'output'
p7
S'Denied\nPassword:'
p8
sS'date'
p9
cdatetime
datetime
p10
(S'\x07\xe1\x08\x19\x10\x0c\x19\x04<z'
p11
tp12
Rp13
sS'input'
p14
S''
p15
ss.(dp0
S'data'
p1
(dp2
S'success'
p3
I00
sS'settings'
p4
(lp5
I23
asS'normal'
p6
I01
sS'output'
p7
S'Denied\nPassword:'
p8
sS'date'
p9
cdatetime
datetime
p10
(S'\x07\xe1\x08\x19\x10\x0c\x19\n&\xf2'
p11
tp12
Rp13
sS'input'
p14
S''
p15
ss.(dp0
S'data'
p1
(dp2
S'success'
p3
I00
sS'settings'
p4
(lp5
I24
asS'normal'
p6
I01
sS'output'
p7
S'Denied\nPassword:'
p8
sS'date'
p9
cdatetime
datetime
p10
(S'\x07\xe1\x08\x19\x10\x0c\x1a\x01@\xa5'
p11
tp12
Rp13
sS'input'
p14
S''
p15
ss.(dp0
S'data'
p1
(dp2
S'success'
p3
I00
sS'settings'
p4
(lp5
I25
asS'normal'
p6
I01
sS'output'
p7
S'Denied\nPassword:'
p8
sS'date'
p9
cdatetime
datetime
p10
(S'\x07\xe1\x08\x19\x10\x0c\x1a\x07\xa5\xd5'
p11
tp12
Rp13
sS'input'
p14
S''
p15
ss.(dp0
S'data'
p1
(dp2
S'success'
p3
I00
sS'settings'
p4
(lp5
I26
asS'normal'
p6
I01
sS'output'
p7
S'Denied\nPassword:'
p8
sS'date'
p9
cdatetime
datetime
p10
(S'\x07\xe1\x08\x19\x10\x0c\x1a\r\xf2H'
p11
tp12
Rp13
sS'input'
p14
S''
p15
ss.(dp0
S'data'
p1
(dp2
S'success'
p3
I00
sS'settings'
p4
(lp5
I27
asS'normal'
p6
I01
sS'output'
p7
S'Denied\nPassword:'
p8
sS'date'
p9
cdatetime
datetime
p10
(S'\x07\xe1\x08\x19\x10\x0c\x1b\x05\x01\x18'
p11
tp12
Rp13
sS'input'
p14
S''
p15
ss.(dp0
S'data'
p1
(dp2
S'success'
p3
I00
sS'settings'
p4
(lp5
I28
asS'normal'
p6
I01
sS'output'
p7
S'Denied\nPassword:'
p8
sS'date'
p9
cdatetime
datetime
p10
(S'\x07\xe1\x08\x19\x10\x0c\x1b\x0bUo'
p11
tp12
Rp13
sS'input'
p14
S''
p15
ss.(dp0
S'data'
p1
(dp2
S'success'
p3
I00
sS'settings'
p4
(lp5
I29
asS'normal'
p6
I01
sS'output'
p7
S'Denied\nPassword:'
p8
sS'date'
p9
cdatetime
datetime
p10
(S'\x07\xe1\x08\x19\x10\x0c\x1c\x02wG'
p11
tp12
Rp13
sS'input'
p14
S''
p15
ss.(dp0
S'data'
p1
(dp2
S'success'
p3
I00
sS'settings'
p4
(lp5
I30
asS'normal'
p6
I01
sS'output'
p7
S'Denied\nPassword:'
p8
sS'date'
p9
cdatetime
datetime
p10
(S'\x07\xe1\x08\x19\x10\x0c\x1c\x08\xe2\xf0'
p11
tp12
Rp13
sS'input'
p14
S''
p15
ss.(dp0
S'data'
p1
(dp2
S'success'
p3
I00
sS'settings'
p4
(lp5
I31
asS'normal'
p6
I01
sS'output'
p7
S'Denied\nPassword:'
p8
sS'date'
p9
cdatetime
datetime
p10
(S'\x07\xe1\x08\x19\x10\x0c\x1d\x00\n\xc6'
p11
tp12
Rp13
sS'input'
p14
S''
p15
ss.(dp0
S'data'
p1
(dp2
S'success'
p3
I00
sS'settings'
p4
(lp5
I32
asS'normal'
p6
I01
sS'output'
p7
S'Denied\nPassword:'
p8
sS'date'
p9
cdatetime
datetime
p10
(S'\x07\xe1\x08\x19\x10\x0c\x1d\x06lS'
p11
tp12
Rp13
sS'input'
p14
S''
p15
ss.(dp0
S'data'
p1
(dp2
S'success'
p3
I00
sS'settings'
p4
(lp5
I33
asS'normal'
p6
I01
sS'output'
p7
S'Denied\nPassword:'
p8
sS'date'
p9
cdatetime
datetime
p10
(S'\x07\xe1\x08\x19\x10\x0c\x1d\x0c\x99 '
p11
tp12
Rp13
sS'input'
p14
S''
p15
ss.(dp0
S'data'
p1
(dp2
S'success'
p3
I00
sS'settings'
p4
(lp5
I34
asS'normal'
p6
I01
sS'output'
p7
S'Denied\nPassword:'
p8
sS'date'
p9
cdatetime
datetime
p10
(S'\x07\xe1\x08\x19\x10\x0c\x1e\x03\xaf2'
p11
tp12
Rp13
sS'input'
p14
S''
p15
ss.(dp0
S'data'
p1
(dp2
S'success'
p3
I00
sS'settings'
p4
(lp5
I35
asS'normal'
p6
I01
sS'output'
p7
S'Denied\nPassword:'
p8
sS'date'
p9
cdatetime
datetime
p10
(S'\x07\xe1\x08\x19\x10\x0c\x1e\n6~'
p11
tp12
Rp13
sS'input'
p14
S''
p15
ss.(dp0
S'data'
p1
(dp2
S'success'
p3
I00
sS'settings'
p4
(lp5
I36
asS'normal'
p6
I01
sS'output'
p7
S'Denied\nPassword:'
p8
sS'date'
p9
cdatetime
datetime
p10
(S'\x07\xe1\x08\x19\x10\x0c\x1f\x01k\t'
p11
tp12
Rp13
sS'input'
p14
S''
p15
ss.(dp0
S'data'
p1
(dp2
S'success'
p3
I00
sS'settings'
p4
(lp5
I37
asS'normal'
p6
I01
sS'output'
p7
S'Denied\nPassword:'
p8
sS'date'
p9
cdatetime
datetime
p10
(S'\x07\xe1\x08\x19\x10\x0c\x1f\x07\xd4\xf3'
p11
tp12
Rp13
sS'input'
p14
S''
p15
ss.(dp0
S'data'
p1
(dp2
S'success'
p3
I00
sS'settings'
p4
(lp5
I38
asS'normal'
p6
I01
sS'output'
p7
S'Denied\nPassword:'
p8
sS'date'
p9
cdatetime
datetime
p10
(S'\x07\xe1\x08\x19\x10\x0c\x1f\x0e(\xba'
p11
tp12
Rp13
sS'input'
p14
S''
p15
ss.(dp0
S'data'
p1
(dp2
S'success'
p3
I00
sS'settings'
p4
(lp5
I39
asS'normal'
p6
I01
sS'output'
p7
S'Denied\nPassword:'
p8
sS'date'
p9
cdatetime
datetime
p10
(S'\x07\xe1\x08\x19\x10\x0c \x05VZ'
p11
tp12
Rp13
sS'input'
p14
S''
p15
ss.(dp0
S'data'
p1
(dp2
S'success'
p3
I00
sS'settings'
p4
(lp5
I40
asS'normal'
p6
I01
sS'output'
p7
S'Denied\nPassword:'
p8
sS'date'
p9
cdatetime
datetime
p10
(S'\x07\xe1\x08\x19\x10\x0c \x0b\xc0\xf2'
p11
tp12
Rp13
sS'input'
p14
S''
p15
ss.(dp0
S'data'
p1
(dp2
S'success'
p3
I00
sS'settings'
p4
(lp5
I41
asS'normal'
p6
I01
sS'output'
p7
S'Denied\nPassword:'
p8
sS'date'
p9
cdatetime
datetime
p10
(S'\x07\xe1\x08\x19\x10\x0c!\x03\x02\x15'
p11
tp12
Rp13
sS'input'
p14
S''
p15
ss.(dp0
S'data'
p1
(dp2
S'success'
p3
I00
sS'settings'
p4
(lp5
I42
asS'normal'
p6
I01
sS'output'
p7
S'Denied\nPassword:'
p8
sS'date'
p9
cdatetime
datetime
p10
(S'\x07\xe1\x08\x19\x10\x0c!\tr\x7f'
p11
tp12
Rp13
sS'input'
p14
S''
p15
ss.(dp0
S'data'
p1
(dp2
S'success'
p3
I00
sS'settings'
p4
(lp5
I43
asS'normal'
p6
I01
sS'output'
p7
S'Denied\nPassword:'
p8
sS'date'
p9
cdatetime
datetime
p10
(S'\x07\xe1\x08\x19\x10\x0c"\x00\xaf\x1c'
p11
tp12
Rp13
sS'input'
p14
S''
p15
ss.(dp0
S'data'
p1
(dp2
S'success'
p3
I00
sS'settings'
p4
(lp5
I44
asS'normal'
p6
I01
sS'output'
p7
S'Denied\nPassword:'
p8
sS'date'
p9
cdatetime
datetime
p10
(S'\x07\xe1\x08\x19\x10\x0c"\x07%\xcc'
p11
tp12
Rp13
sS'input'
p14
S''
p15
ss.(dp0
S'data'
p1
(dp2
S'success'
p3
I00
sS'settings'
p4
(lp5
I45
asS'normal'
p6
I01
sS'output'
p7
S'Denied\nPassword:'
p8
sS'date'
p9
cdatetime
datetime
p10
(S'\x07\xe1\x08\x19\x10\x0c"\r\xa8y'
p11
tp12
Rp13
sS'input'
p14
S''
p15
ss.(dp0
S'data'
p1
(dp2
S'success'
p3
I00
sS'settings'
p4
(lp5
I46
asS'normal'
p6
I01
sS'output'
p7
S'Denied\nPassword:'
p8
sS'date'
p9
cdatetime
datetime
p10
(S'\x07\xe1\x08\x19\x10\x0c#\x04\xeb\xe8'
p11
tp12
Rp13
sS'input'
p14
S''
p15
ss.(dp0
S'data'
p1
(dp2
S'success'
p3
I00
sS'settings'
p4
(lp5
I47
asS'normal'
p6
I01
sS'output'
p7
S'Denied\nPassword:'
p8
sS'date'
p9
cdatetime
datetime
p10
(S'\x07\xe1\x08\x19\x10\x0c#\x0bv`'
p11
tp12
Rp13
sS'input'
p14
S''
p15
ss.(dp0
S'data'
p1
(dp2
S'success'
p3
I01
sS'settings'
p4
(lp5
I48
asS'normal'
p6
I00
sS'output'
p7
S'Welcome\nPassword:'
p8
sS'date'
p9
cdatetime
datetime
p10
(S'\x07\xe1\x08\x19\x10\x0c$\x02\xb1>'
p11
tp12
Rp13
sS'input'
p14
S''
p15
ss.(dp0
S'data'
p1
(dp2
S'success'
p3
I00
sS'settings'
p4
(lp5
I49
asS'normal'
p6
I01
sS'output'
p7
S'Denied\nPassword:'
p8
sS'date'
p9
cdatetime
datetime
p10
(S'\x07\xe1\x08\x19\x10\x0c$\t+\xbc'
p11
tp12
Rp13
sS'input'
p14
S''
p15
ss.(dp0
S'data'
p1
(dp2
S'success'
p3
I00
sS'settings'
p4
(lp5
I50
asS'normal'
p6
I00
sS'output'
p7
S'0123456789ABCDEF%lu %d %d %d\nPassword:'
p8
sS'date'
p9
cdatetime
datetime
p10
(S'\x07\xe1\x08\x19\x10\x0c%\x00p0'
p11
tp12
Rp13
sS'input'
p14
S''
p15
ss.(dp0
S'data'
p1
(dp2
S'success'
p3
I00
sS'settings'
p4
(lp5
I51
asS'normal'
p6
I00
sS'output'
p7
S'Password:'
p8
sS'date'
p9
cdatetime
datetime
p10
(S'\x07\xe1\x08\x19\x10\x0c%\x06\xe3#'
p11
tp12
Rp13
sS'input'
p14
S''
p15
ss.(dp0
S'data'
p1
(dp2
S'success'
p3
I01
sS'settings'
p4
(lp5
I52
asS'normal'
p6
I00
sS'output'
p7
S'Welcome\nPassword:'
p8
sS'date'
p9
cdatetime
datetime
p10
(S'\x07\xe1\x08\x19\x10\x0c%\rat'
p11
tp12
Rp13
sS'input'
p14
S''
p15
ss.(dp0
S'data'
p1
(dp2
S'success'
p3
I00
sS'settings'
p4
(lp5
I53
asS'normal'
p6
I01
sS'output'
p7
S'Denied\nPassword:'
p8
sS'date'
p9
cdatetime
datetime
p10
(S'\x07\xe1\x08\x19\x10\x0c&\x04\xa8\x80'
p11
tp12
Rp13
sS'input'
p14
S''
p15
ss.(dp0
S'data'
p1
(dp2
S'success'
p3
I00
sS'settings'
p4
(lp5
I54
asS'normal'
p6
I00
sS'output'
p7
S'Denied\nhello\nPassword:'
p8
sS'date'
p9
cdatetime
datetime
p10
(S'\x07\xe1\x08\x19\x10\x0c&\n\xf7*'
p11
tp12
Rp13
sS'input'
p14
S''
p15
ss.(dp0
S'data'
p1
(dp2
S'success'
p3
I00
sS'settings'
p4
(lp5
I55
asS'normal'
p6
I01
sS'output'
p7
S'Denied\nPassword:'
p8
sS'date'
p9
cdatetime
datetime
p10
(S"\x07\xe1\x08\x19\x10\x0c'\x01\xe7\x8d"
p11
tp12
Rp13
sS'input'
p14
S''
p15
ss.(dp0
S'data'
p1
(dp2
S'success'
p3
I00
sS'settings'
p4
(lp5
I56
asS'normal'
p6
I00
sS'output'
p7
S'Denied\nhello\nPassword:'
p8
sS'date'
p9
cdatetime
datetime
p10
(S"\x07\xe1\x08\x19\x10\x0c'\x08y\xed"
p11
tp12
Rp13
sS'input'
p14
S''
p15
ss.(dp0
S'data'
p1
(dp2
S'success'
p3
I00
sS'settings'
p4
(lp5
I57
asS'normal'
p6
I01
sS'output'
p7
S'Denied\nPassword:'
p8
sS'date'
p9
cdatetime
datetime
p10
(S"\x07\xe1\x08\x19\x10\x0c'\x0f\x04\xe5"
p11
tp12
Rp13
sS'input'
p14
S''
p15
ss.(dp0
S'data'
p1
(dp2
S'success'
p3
I00
sS'settings'
p4
(lp5
I58
asS'normal'
p6
I01
sS'output'
p7
S'Denied\nPassword:'
p8
sS'date'
p9
cdatetime
datetime
p10
(S'\x07\xe1\x08\x19\x10\x0c(\x06`\x8d'
p11
tp12
Rp13
sS'input'
p14
S''
p15
ss.(dp0
S'data'
p1
(dp2
S'success'
p3
I00
sS'settings'
p4
(lp5
I59
asS'normal'
p6
I01
sS'output'
p7
S'Denied\nPassword:'
p8
sS'date'
p9
cdatetime
datetime
p10
(S'\x07\xe1\x08\x19\x10\x0c(\r\x08\x8c'
p11
tp12
Rp13
sS'input'
p14
S''
p15
ss.(dp0
S'data'
p1
(dp2
S'success'
p3
I00
sS'settings'
p4
(lp5
I60
asS'normal'
p6
I00
sS'output'
p7
S'Denied\nhello\nPassword:'
p8
sS'date'
p9
cdatetime
datetime
p10
(S'\x07\xe1\x08\x19\x10\x0c)\x04Y\xbf'
p11
tp12
Rp13
sS'input'
p14
S''
p15
ss.(dp0
S'data'
p1
(dp2
S'success'
p3
I00
sS'settings'
p4
(lp5
I61
asS'normal'
p6
I01
sS'output'
p7
S'Denied\nPassword:'
p8
sS'date'
p9
cdatetime
datetime
p10
(S'\x07\xe1\x08\x19\x10\x0c)\n\xf3\x14'
p11
tp12
Rp13
sS'input'
p14
S''
p15
ss.(dp0
S'data'
p1
(dp2
S'success'
p3
I00
sS'settings'
p4
(lp5
I62
asS'normal'
p6
I00
sS'output'
p7
S'Denied\nhello\nPassword:'
p8
sS'date'
p9
cdatetime
datetime
p10
(S'\x07\xe1\x08\x19\x10\x0c*\x02X\xf1'
p11
tp12
Rp13
sS'input'
p14
S''
p15
ss.(dp0
S'data'
p1
(dp2
S'success'
p3
I00
sS'settings'
p4
(lp5
I63
asS'normal'
p6
I01
sS'output'
p7
S'Denied\nPassword:'
p8
sS'date'
p9
cdatetime
datetime
p10
(S'\x07\xe1\x08\x19\x10\x0c*\t\x0e\xd0'
p11
tp12
Rp13
sS'input'
p14
S''
p15
ss.(dp0
S'data'
p1
(dp2
S'success'
p3
I00
sS'settings'
p4
(lp5
I64
asS'normal'
p6
I00
sS'output'
p7
S'Denied\nhello\nPassword:'
p8
sS'date'
p9
cdatetime
datetime
p10
(S'\x07\xe1\x08\x19\x10\x0c+\x00\x91\xe1'
p11
tp12
Rp13
sS'input'
p14
S''
p15
ss.(dp0
S'data'
p1
(dp2
S'success'
p3
I00
sS'settings'
p4
(lp5
I65
asS'normal'
p6
I01
sS'output'
p7
S'Denied\nPassword:'
p8
sS'date'
p9
cdatetime
datetime
p10
(S'\x07\xe1\x08\x19\x10\x0c+\x07.\x07'
p11
tp12
Rp13
sS'input'
p14
S''
p15
ss.(dp0
S'data'
p1
(dp2
S'success'
p3
I00
sS'settings'
p4
(lp5
I66
asS'normal'
p6
I00
sS'output'
p7
S'Password:'
p8
sS'date'
p9
cdatetime
datetime
p10
(S'\x07\xe1\x08\x19\x10\x0c+\r\x92z'
p11
tp12
Rp13
sS'input'
p14
S''
p15
ss.(dp0
S'data'
p1
(dp2
S'success'
p3
I00
sS'settings'
p4
(lp5
I67
asS'normal'
p6
I00
sS'output'
p7
S'hello\nPassword:'
p8
sS'date'
p9
cdatetime
datetime
p10
(S'\x07\xe1\x08\x19\x10\x0c,\x04\xe6u'
p11
tp12
Rp13
sS'input'
p14
S''
p15
ss.(dp0
S'data'
p1
(dp2
S'success'
p3
I00
sS'settings'
p4
(lp5
I68
asS'normal'
p6
I01
sS'output'
p7
S'Denied\nPassword:'
p8
sS'date'
p9
cdatetime
datetime
p10
(S'\x07\xe1\x08\x19\x10\x0c,\x0b\x83z'
p11
tp12
Rp13
sS'input'
p14
S''
p15
ss.(dp0
S'data'
p1
(dp2
S'success'
p3
I00
sS'settings'
p4
(lp5
I69
asS'normal'
p6
I00
sS'output'
p7
S'Denied\nhello\nPassword:'
p8
sS'date'
p9
cdatetime
datetime
p10
(S'\x07\xe1\x08\x19\x10\x0c-\x03\n\x96'
p11
tp12
Rp13
sS'input'
p14
S''
p15
ss.(dp0
S'data'
p1
(dp2
S'success'
p3
I00
sS'settings'
p4
(lp5
I70
asS'normal'
p6
I00
sS'output'
p7
S'Denied\nhello\nPassword:'
p8
sS'date'
p9
cdatetime
datetime
p10
(S'\x07\xe1\x08\x19\x10\x0c-\t`\xf4'
p11
tp12
Rp13
sS'input'
p14
S''
p15
ss.(dp0
S'data'
p1
(dp2
S'success'
p3
I00
sS'settings'
p4
(lp5
I71
asS'normal'
p6
I00
sS'output'
p7
S'\x8a\x01\x96\x01\x96\x01\x96\x01\x96\x01\x96\x01\x96\x01\x96\x01\x96\x01\x96\x01\x96\x01\x96\x01\x96\x01\x96\x01\x96\x01\x96\x01\x96\x01\x96\x01\x96\x01\x96\x01\x96\x01\x96\x01\x96\x01\x96\x01\x96\x01\x96\x01\x96\x01\x96\x01\x96\x01\x96\x01\x96\x01\x96\x01'
p8
sS'date'
p9
cdatetime
datetime
p10
(S'\x07\xe1\x08\x19\x10\x0c-\x0bjS'
p11
tp12
Rp13
sS'input'
p14
S''
p15
ss.(dp0
S'data'
p1
(dp2
S'success'
p3
I00
sS'settings'
p4
(lp5
I72
asS'normal'
p6
I00
sS'output'
p7
S'-Denied\nPassword:'
p8
sS'date'
p9
cdatetime
datetime
p10
(S'\x07\xe1\x08\x19\x10\x0c.\x02u\x03'
p11
tp12
Rp13
sS'input'
p14
S''
p15
ss.(dp0
S'data'
p1
(dp2
S'success'
p3
I00
sS'settings'
p4
(lp5
I73
asS'normal'
p6
I01
sS'output'
p7
S'Denied\nPassword:'
p8
sS'date'
p9
cdatetime
datetime
p10
(S'\x07\xe1\x08\x19\x10\x0c.\x08\xeb\x8a'
p11
tp12
Rp13
sS'input'
p14
S''
p15
ss.(dp0
S'data'
p1
(dp2
S'success'
p3
I00
sS'settings'
p4
(lp5
I74
asS'normal'
p6
I01
sS'output'
p7
S'Denied\nPassword:'
p8
sS'date'
p9
cdatetime
datetime
p10
(S'\x07\xe1\x08\x19\x10\x0c/\x00W\xc3'
p11
tp12
Rp13
sS'input'
p14
S''
p15
ss.(dp0
S'data'
p1
(dp2
S'success'
p3
I00
sS'settings'
p4
(lp5
I75
asS'normal'
p6
I01
sS'output'
p7
S'Denied\nPassword:'
p8
sS'date'
p9
cdatetime
datetime
p10
(S'\x07\xe1\x08\x19\x10\x0c/\x07:\xfa'
p11
tp12
Rp13
sS'input'
p14
S''
p15
ss.(dp0
S'data'
p1
(dp2
S'success'
p3
I00
sS'settings'
p4
(lp5
I76
asS'normal'
p6
I00
sS'output'
p7
S'enied\nPassword:'
p8
sS'date'
p9
cdatetime
datetime
p10
(S'\x07\xe1\x08\x19\x10\x0c/\r\xf5\x8e'
p11
tp12
Rp13
sS'input'
p14
S''
p15
ss.(dp0
S'data'
p1
(dp2
S'success'
p3
I00
sS'settings'
p4
(lp5
I77
asS'normal'
p6
I00
sS'output'
p7
S'hello\nPassword:'
p8
sS'date'
p9
cdatetime
datetime
p10
(S'\x07\xe1\x08\x19\x10\x0c0\x04\xfa\xb2'
p11
tp12
Rp13
sS'input'
p14
S''
p15
ss.(dp0
S'data'
p1
(dp2
S'success'
p3
I00
sS'settings'
p4
(lp5
I78
asS'normal'
p6
I01
sS'output'
p7
S'Denied\nPassword:'
p8
sS'date'
p9
cdatetime
datetime
p10
(S'\x07\xe1\x08\x19\x10\x0c0\x0b\x81y'
p11
tp12
Rp13
sS'input'
p14
S''
p15
ss.(dp0
S'data'
p1
(dp2
S'success'
p3
I00
sS'settings'
p4
(lp5
I79
asS'normal'
p6
I01
sS'output'
p7
S'Denied\nPassword:'
p8
sS'date'
p9
cdatetime
datetime
p10
(S'\x07\xe1\x08\x19\x10\x0c1\x02\xb4p'
p11
tp12
Rp13
sS'input'
p14
S''
p15
ss.(dp0
S'data'
p1
(dp2
S'success'
p3
I00
sS'settings'
p4
(lp5
I80
asS'normal'
p6
I01
sS'output'
p7
S'Denied\nPassword:'
p8
sS'date'
p9
cdatetime
datetime
p10
(S'\x07\xe1\x08\x19\x10\x0c1\tpk'
p11
tp12
Rp13
sS'input'
p14
S''
p15
ss.(dp0
S'data'
p1
(dp2
S'success'
p3
I00
sS'settings'
p4
(lp5
I81
asS'normal'
p6
I01
sS'output'
p7
S'Denied\nPassword:'
p8
sS'date'
p9
cdatetime
datetime
p10
(S'\x07\xe1\x08\x19\x10\x0c2\x00\xf9\x03'
p11
tp12
Rp13
sS'input'
p14
S''
p15
ss.(dp0
S'data'
p1
(dp2
S'success'
p3
I00
sS'settings'
p4
(lp5
I82
asS'normal'
p6
I01
sS'output'
p7
S'Denied\nPassword:'
p8
sS'date'
p9
cdatetime
datetime
p10
(S'\x07\xe1\x08\x19\x10\x0c2\x07\xc5\xb1'
p11
tp12
Rp13
sS'input'
p14
S''
p15
ss.(dp0
S'data'
p1
(dp2
S'success'
p3
I00
sS'settings'
p4
(lp5
I83
asS'normal'
p6
I01
sS'output'
p7
S'Denied\nPassword:'
p8
sS'date'
p9
cdatetime
datetime
p10
(S'\x07\xe1\x08\x19\x10\x0c2\x0e\x88\x90'
p11
tp12
Rp13
sS'input'
p14
S''
p15
ss.(dp0
S'data'
p1
(dp2
S'success'
p3
I00
sS'settings'
p4
(lp5
I84
asS'normal'
p6
I00
sS'output'
p7
S'enied\nPassword:'
p8
sS'date'
p9
cdatetime
datetime
p10
(S'\x07\xe1\x08\x19\x10\x0c3\x06%\xdf'
p11
tp12
Rp13
sS'input'
p14
S''
p15
ss.(dp0
S'data'
p1
(dp2
S'success'
p3
I00
sS'settings'
p4
(lp5
I85
asS'normal'
p6
I00
sS'output'
p7
S'enied\nPassword:'
p8
sS'date'
p9
cdatetime
datetime
p10
(S'\x07\xe1\x08\x19\x10\x0c3\x0c\xf3\xae'
p11
tp12
Rp13
sS'input'
p14
S''
p15
ss.(dp0
S'data'
p1
(dp2
S'success'
p3
I00
sS'settings'
p4
(lp5
I86
asS'normal'
p6
I01
sS'output'
p7
S'Denied\nPassword:'
p8
sS'date'
p9
cdatetime
datetime
p10
(S'\x07\xe1\x08\x19\x10\x0c4\x04b\x99'
p11
tp12
Rp13
sS'input'
p14
S''
p15
ss.(dp0
S'data'
p1
(dp2
S'success'
p3
I00
sS'settings'
p4
(lp5
I87
asS'normal'
p6
I01
sS'output'
p7
S'Denied\nPassword:'
p8
sS'date'
p9
cdatetime
datetime
p10
(S'\x07\xe1\x08\x19\x10\x0c4\x0b>\xf5'
p11
tp12
Rp13
sS'input'
p14
S''
p15
ss.(dp0
S'data'
p1
(dp2
S'success'
p3
I00
sS'settings'
p4
(lp5
I88
asS'normal'
p6
I01
sS'output'
p7
S'Denied\nPassword:'
p8
sS'date'
p9
cdatetime
datetime
p10
(S'\x07\xe1\x08\x19\x10\x0c5\x02\xda\n'
p11
tp12
Rp13
sS'input'
p14
S''
p15
ss.(dp0
S'data'
p1
(dp2
S'success'
p3
I00
sS'settings'
p4
(lp5
I89
asS'normal'
p6
I01
sS'output'
p7
S'Denied\nPassword:'
p8
sS'date'
p9
cdatetime
datetime
p10
(S'\x07\xe1\x08\x19\x10\x0c5\t\xb4\xf4'
p11
tp12
Rp13
sS'input'
p14
S''
p15
ss.(dp0
S'data'
p1
(dp2
S'success'
p3
I00
sS'settings'
p4
(lp5
I90
asS'normal'
p6
I01
sS'output'
p7
S'Denied\nPassword:'
p8
sS'date'
p9
cdatetime
datetime
p10
(S'\x07\xe1\x08\x19\x10\x0c6\x01G\xee'
p11
tp12
Rp13
sS'input'
p14
S''
p15
ss.(dp0
S'data'
p1
(dp2
S'success'
p3
I00
sS'settings'
p4
(lp5
I91
asS'normal'
p6
I00
sS'output'
p7
S'DPassword:'
p8
sS'date'
p9
cdatetime
datetime
p10
(S'\x07\xe1\x08\x19\x10\x0c6\x080e'
p11
tp12
Rp13
sS'input'
p14
S''
p15
ss.(dp0
S'data'
p1
(dp2
S'success'
p3
I00
sS'settings'
p4
(lp5
I92
asS'normal'
p6
I01
sS'output'
p7
S'Denied\nPassword:'
p8
sS'date'
p9
cdatetime
datetime
p10
(S'\x07\xe1\x08\x19\x10\x0c6\x0f\x16x'
p11
tp12
Rp13
sS'input'
p14
S''
p15
ss.(dp0
S'data'
p1
(dp2
S'success'
p3
I00
sS'settings'
p4
(lp5
I93
asS'normal'
p6
I00
sS'output'
p7
S'DDenied\nPassword:'
p8
sS'date'
p9
cdatetime
datetime
p10
(S'\x07\xe1\x08\x19\x10\x0c7\x06\xb5/'
p11
tp12
Rp13
sS'input'
p14
S''
p15
ss.(dp0
S'data'
p1
(dp2
S'success'
p3
I00
sS'settings'
p4
(lp5
I94
asS'normal'
p6
I01
sS'output'
p7
S'Denied\nPassword:'
p8
sS'date'
p9
cdatetime
datetime
p10
(S'\x07\xe1\x08\x19\x10\x0c7\r\x8dy'
p11
tp12
Rp13
sS'input'
p14
S''
p15
ss.(dp0
S'data'
p1
(dp2
S'success'
p3
I00
sS'settings'
p4
(lp5
I95
asS'normal'
p6
I01
sS'output'
p7
S'Denied\nPassword:'
p8
sS'date'
p9
cdatetime
datetime
p10
(S'\x07\xe1\x08\x19\x10\x0c8\x05:-'
p11
tp12
Rp13
sS'input'
p14
S''
p15
ss.(dp0
S'data'
p1
(dp2
S'success'
p3
I00
sS'settings'
p4
(lp5
I96
asS'normal'
p6
I01
sS'output'
p7
S'Denied\nPassword:'
p8
sS'date'
p9
cdatetime
datetime
p10
(S'\x07\xe1\x08\x19\x10\x0c8\x0c;\x1e'
p11
tp12
Rp13
sS'input'
p14
S''
p15
ss.(dp0
S'data'
p1
(dp2
S'success'
p3
I00
sS'settings'
p4
(lp5
I97
asS'normal'
p6
I00
sS'output'
p7
S'Dnied\nPassword:'
p8
sS'date'
p9
cdatetime
datetime
p10
(S'\x07\xe1\x08\x19\x10\x0c9\x03\x9e\xa0'
p11
tp12
Rp13
sS'input'
p14
S''
p15
ss.(dp0
S'data'
p1
(dp2
S'success'
p3
I00
sS'settings'
p4
(lp5
I98
asS'normal'
p6
I00
sS'output'
p7
S'Dhello\nPassword:'
p8
sS'date'
p9
cdatetime
datetime
p10
(S'\x07\xe1\x08\x19\x10\x0c9\nk\t'
p11
tp12
Rp13
sS'input'
p14
S''
p15
ss.(dp0
S'data'
p1
(dp2
S'success'
p3
I00
sS'settings'
p4
(lp5
I99
asS'normal'
p6
I01
sS'output'
p7
S'Denied\nPassword:'
p8
sS'date'
p9
cdatetime
datetime
p10
(S'\x07\xe1\x08\x19\x10\x0c:\x01\xcc\xda'
p11
tp12
Rp13
sS'input'
p14
S''
p15
ss.(dp0
S'data'
p1
(dp2
S'success'
p3
I00
sS'settings'
p4
(lp5
I100
asS'normal'
p6
I01
sS'output'
p7
S'Denied\nPassword:'
p8
sS'date'
p9
cdatetime
datetime
p10
(S'\x07\xe1\x08\x19\x10\x0c:\x08\x9e&'
p11
tp12
Rp13
sS'input'
p14
S''
p15
ss.