(dp0
S'notes'
p1
S''
p2
s.(dp0
S'commands'
p1
(lp2
V['Glitch Module', 'Ext Trigger Offset']
p3
as.(dp0
S'data'
p1
(dp2
S'success'
p3
I00
sS'settings'
p4
(lp5
I0
asS'normal'
p6
I00
sS'output'
p7
S'Denied\nPassword:'
p8
sS'date'
p9
cdatetime
datetime
p10
(S'\x07\xe1\x08\x19\r\x13\x01\x02\x06\xf9'
p11
tp12
Rp13
sS'input'
p14
S''
p15
ss.(dp0
S'data'
p1
(dp2
S'success'
p3
I00
sS'settings'
p4
(lp5
I1
asS'normal'
p6
I00
sS'output'
p7
S'Denied\nPassword:'
p8
sS'date'
p9
cdatetime
datetime
p10
(S'\x07\xe1\x08\x19\r\x13\x01\x08y"'
p11
tp12
Rp13
sS'input'
p14
S''
p15
ss.(dp0
S'data'
p1
(dp2
S'success'
p3
I00
sS'settings'
p4
(lp5
I2
asS'normal'
p6
I00
sS'output'
p7
S'Denied\nPassword:'
p8
sS'date'
p9
cdatetime
datetime
p10
(S'\x07\xe1\x08\x19\r\x13\x01\x0e\\\x15'
p11
tp12
Rp13
sS'input'
p14
S''
p15
ss.(dp0
S'data'
p1
(dp2
S'success'
p3
I00
sS'settings'
p4
(lp5
I3
asS'normal'
p6
I00
sS'output'
p7
S'Denied\nPassword:'
p8
sS'date'
p9
cdatetime
datetime
p10
(S'\x07\xe1\x08\x19\r\x13\x02\x05\x10-'
p11
tp12
Rp13
sS'input'
p14
S''
p15
ss.(dp0
S'data'
p1
(dp2
S'success'
p3
I00
sS'settings'
p4
(lp5
I4
asS'normal'
p6
I00
sS'output'
p7
S'Denied\nPassword:'
p8
sS'date'
p9
cdatetime
datetime
p10
(S'\x07\xe1\x08\x19\r\x13\x02\n\xfc\xcf'
p11
tp12
Rp13
sS'input'
p14
S''
p15
ss.(dp0
S'data'
p1
(dp2
S'success'
p3
I00
sS'settings'
p4
(lp5
I5
asS'normal'
p6
I00
sS'output'
p7
S'Denied\nPassword:'
p8
sS'date'
p9
cdatetime
datetime
p10
(S'\x07\xe1\x08\x19\r\x13\x03\x01\xceF'
p11
tp12
Rp13
sS'input'
p14
S''
p15
ss.(dp0
S'data'
p1
(dp2
S'success'
p3
I00
sS'settings'
p4
(lp5
I6
asS'normal'
p6
I00
sS'output'
p7
S'Denied\nPassword:'
p8
sS'date'
p9
cdatetime
datetime
p10
(S'\x07\xe1\x08\x19\r\x13\x03\x07\xd8\xb6'
p11
tp12
Rp13
sS'input'
p14
S''
p15
ss.(dp0
S'data'
p1
(dp2
S'success'
p3
I00
sS'settings'
p4
(lp5
I7
asS'normal'
p6
I00
sS'output'
p7
S'Denied\nPassword:'
p8
sS'date'
p9
cdatetime
datetime
p10
(S'\x07\xe1\x08\x19\r\x13\x03\r\xc9\x0b'
p11
tp12
Rp13
sS'input'
p14
S''
p15
ss.(dp0
S'data'
p1
(dp2
S'success'
p3
I00
sS'settings'
p4
(lp5
I8
asS'normal'
p6
I00
sS'output'
p7
S'Denied\nPassword:'
p8
sS'date'
p9
cdatetime
datetime
p10
(S'\x07\xe1\x08\x19\r\x13\x04\x04\xba\x05'
p11
tp12
Rp13
sS'input'
p14
S''
p15
ss.(dp0
S'data'
p1
(dp2
S'success'
p3
I00
sS'settings'
p4
(lp5
I9
asS'normal'
p6
I00
sS'output'
p7
S'Denied\nPassword:'
p8
sS'date'
p9
cdatetime
datetime
p10
(S'\x07\xe1\x08\x19\r\x13\x04\n\xf3\xc5'
p11
tp12
Rp13
sS'input'
p14
S''
p15
ss.(dp0
S'data'
p1
(dp2
S'success'
p3
I00
sS'settings'
p4
(lp5
I10
asS'normal'
p6
I00
sS'output'
p7
S'Denied\nPassword:'
p8
sS'date'
p9
cdatetime
datetime
p10
(S'\x07\xe1\x08\x19\r\x13\x05\x01\xdd\x86'
p11
tp12
Rp13
sS'input'
p14
S''
p15
ss.(dp0
S'data'
p1
(dp2
S'success'
p3
I00
sS'settings'
p4
(lp5
I11
asS'normal'
p6
I00
sS'output'
p7
S'Welcome\nPassword:'
p8
sS'date'
p9
cdatetime
datetime
p10
(S'\x07\xe1\x08\x19\r\x13\x05\x08\x18A'
p11
tp12
Rp13
sS'input'
p14
S''
p15
ss.(dp0
S'data'
p1
(dp2
S'success'
p3
I00
sS'settings'
p4
(lp5
I12
asS'normal'
p6
I00
sS'output'
p7
S'Denied\nPassword:'
p8
sS'date'
p9
cdatetime
datetime
p10
(S'\x07\xe1\x08\x19\r\x13\x05\x0e5\xc9'
p11
tp12
Rp13
sS'input'
p14
S''
p15
ss.(dp0
S'data'
p1
(dp2
S'success'
p3
I00
sS'settings'
p4
(lp5
I13
asS'normal'
p6
I00
sS'output'
p7
S'Denied\nPassword:'
p8
sS'date'
p9
cdatetime
datetime
p10
(S'\x07\xe1\x08\x19\r\x13\x06\x05\x0f\xa3'
p11
tp12
Rp13
sS'input'
p14
S''
p15
ss.(dp0
S'data'
p1
(dp2
S'success'
p3
I00
sS'settings'
p4
(lp5
I14
asS'normal'
p6
I00
sS'output'
p7
S'Denied\nPassword:'
p8
sS'date'
p9
cdatetime
datetime
p10
(S'\x07\xe1\x08\x19\r\x13\x06\x0bH\x8d'
p11
tp12
Rp13
sS'input'
p14
S''
p15
ss.(dp0
S'data'
p1
(dp2
S'success'
p3
I00
sS'settings'
p4
(lp5
I15
asS'normal'
p6
I00
sS'output'
p7
S'Denied\nPassword:'
p8
sS'date'
p9
cdatetime
datetime
p10
(S'\x07\xe1\x08\x19\r\x13\x07\x02 i'
p11
tp12
Rp13
sS'input'
p14
S''
p15
ss.(dp0
S'data'
p1
(dp2
S'success'
p3
I00
sS'settings'
p4
(lp5
I16
asS'normal'
p6
I00
sS'output'
p7
S'Denied\nPassword:'
p8
sS'date'
p9
cdatetime
datetime
p10
(S'\x07\xe1\x08\x19\r\x13\x07\x08CQ'
p11
tp12
Rp13
sS'input'
p14
S''
p15
ss.(dp0
S'data'
p1
(dp2
S'success'
p3
I00
sS'settings'
p4
(lp5
I17
asS'normal'
p6
I00
sS'output'
p7
S'Denied\nPassword:'
p8
sS'date'
p9
cdatetime
datetime
p10
(S'\x07\xe1\x08\x19\r\x13\x07\x0ek8'
p11
tp12
Rp13
sS'input'
p14
S''
p15
ss.(dp0
S'data'
p1
(dp2
S'success'
p3
I00
sS'settings'
p4
(lp5
I18
asS'normal'
p6
I00
sS'output'
p7
S'Denied\nPassword:'
p8
sS'date'
p9
cdatetime
datetime
p10
(S'\x07\xe1\x08\x19\r\x13\x08\x05T$'
p11
tp12
Rp13
sS'input'
p14
S''
p15
ss.(dp0
S'data'
p1
(dp2
S'success'
p3
I00
sS'settings'
p4
(lp5
I19
asS'normal'
p6
I00
sS'output'
p7
S'Denied\nPassword:'
p8
sS'date'
p9
cdatetime
datetime
p10
(S'\x07\xe1\x08\x19\r\x13\x08\x0bw\x88'
p11
tp12
Rp13
sS'input'
p14
S''
p15
ss.(dp0
S'data'
p1
(dp2
S'success'
p3
I00
sS'settings'
p4
(lp5
I20
asS'normal'
p6
I00
sS'output'
p7
S'Denied\nPassword:'
p8
sS'date'
p9
cdatetime
datetime
p10
(S'\x07\xe1\x08\x19\r\x13\t\x02a\xb8'
p11
tp12
Rp13
sS'input'
p14
S''
p15
ss.(dp0
S'data'
p1
(dp2
S'success'
p3
I00
sS'settings'
p4
(lp5
I21
asS'normal'
p6
I00
sS'output'
p7
S'Denied\nPassword:'
p8
sS'date'
p9
cdatetime
datetime
p10
(S'\x07\xe1\x08\x19\r\x13\t\x08\xb3\xa7'
p11
tp12
Rp13
sS'input'
p14
S''
p15
ss.(dp0
S'data'
p1
(dp2
S'success'
p3
I00
sS'settings'
p4
(lp5
I22
asS'normal'
p6
I00
sS'output'
p7
S'Denied\nPassword:'
p8
sS'date'
p9
cdatetime
datetime
p10
(S'\x07\xe1\x08\x19\r\x13\t\x0e\xe6\xfe'
p11
tp12
Rp13
sS'input'
p14
S''
p15
ss.(dp0
S'data'
p1
(dp2
S'success'
p3
I00
sS'settings'
p4
(lp5
I23
asS'normal'
p6
I00
sS'output'
p7
S'Denied\nPassword:'
p8
sS'date'
p9
cdatetime
datetime
p10
(S'\x07\xe1\x08\x19\r\x13\n\x05\xdcc'
p11
tp12
Rp13
sS'input'
p14
S''
p15
ss.(dp0
S'data'
p1
(dp2
S'success'
p3
I00
sS'settings'
p4
(lp5
I24
asS'normal'
p6
I00
sS'output'
p7
S'Denied\nPassword:'
p8
sS'date'
p9
cdatetime
datetime
p10
(S'\x07\xe1\x08\x19\r\x13\n\x0c \xa5'
p11
tp12
Rp13
sS'input'
p14
S''
p15
ss.(dp0
S'data'
p1
(dp2
S'success'
p3
I00
sS'settings'
p4
(lp5
I25
asS'normal'
p6
I00
sS'output'
p7
S'Denied\nPassword:'
p8
sS'date'
p9
cdatetime
datetime
p10
(S'\x07\xe1\x08\x19\r\x13\x0b\x03\x0b\xda'
p11
tp12
Rp13
sS'input'
p14
S''
p15
ss.(dp0
S'data'
p1
(dp2
S'success'
p3
I00
sS'settings'
p4
(lp5
I26
asS'normal'
p6
I00
sS'output'
p7
S'Denied\nPassword:'
p8
sS'date'
p9
cdatetime
datetime
p10
(S'\x07\xe1\x08\x19\r\x13\x0b\t\xa0r'
p11
tp12
Rp13
sS'input'
p14
S''
p15
ss.(dp0
S'data'
p1
(dp2
S'success'
p3
I00
sS'settings'
p4
(lp5
I27
asS'normal'
p6
I00
sS'output'
p7
S'Denied\nPassword:'
p8
sS'date'
p9
cdatetime
datetime
p10
(S'\x07\xe1\x08\x19\r\x13\x0c\x00\xb8\x00'
p11
tp12
Rp13
sS'input'
p14
S''
p15
ss.(dp0
S'data'
p1
(dp2
S'success'
p3
I00
sS'settings'
p4
(lp5
I28
asS'normal'
p6
I00
sS'output'
p7
S'Denied\nPassword:'
p8
sS'date'
p9
cdatetime
datetime
p10
(S'\x07\xe1\x08\x19\r\x13\x0c\x07\x7f^'
p11
tp12
Rp13
sS'input'
p14
S''
p15
ss.(dp0
S'data'
p1
(dp2
S'success'
p3
I00
sS'settings'
p4
(lp5
I29
asS'normal'
p6
I00
sS'output'
p7
S'Denied\nPassword:'
p8
sS'date'
p9
cdatetime
datetime
p10
(S'\x07\xe1\x08\x19\r\x13\x0c\r\xaeU'
p11
tp12
Rp13
sS'input'
p14
S''
p15
ss.(dp0
S'data'
p1
(dp2
S'success'
p3
I00
sS'settings'
p4
(lp5
I30
asS'normal'
p6
I00
sS'output'
p7
S'Denied\nPassword:'
p8
sS'date'
p9
cdatetime
datetime
p10
(S'\x07\xe1\x08\x19\r\x13\r\x04\xaf\xa5'
p11
tp12
Rp13
sS'input'
p14
S''
p15
ss.(dp0
S'data'
p1
(dp2
S'success'
p3
I00
sS'settings'
p4
(lp5
I31
asS'normal'
p6
I00
sS'output'
p7
S'Denied\nPassword:'
p8
sS'date'
p9
cdatetime
datetime
p10
(S'\x07\xe1\x08\x19\r\x13\r\n\xe5\xce'
p11
tp12
Rp13
sS'input'
p14
S''
p15
ss.(dp0
S'data'
p1
(dp2
S'success'
p3
I00
sS'settings'
p4
(lp5
I32
asS'normal'
p6
I00
sS'output'
p7
S'Denied\nPassword:'
p8
sS'date'
p9
cdatetime
datetime
p10
(S'\x07\xe1\x08\x19\r\x13\x0e\x02\x93\x82'
p11
tp12
Rp13
sS'input'
p14
S''
p15
ss.(dp0
S'data'
p1
(dp2
S'success'
p3
I00
sS'settings'
p4
(lp5
I33
asS'normal'
p6
I00
sS'output'
p7
S'Denied\nPassword:'
p8
sS'date'
p9
cdatetime
datetime
p10
(S'\x07\xe1\x08\x19\r\x13\x0e\t\x8f\xea'
p11
tp12
Rp13
sS'input'
p14
S''
p15
ss.(dp0
S'data'
p1
(dp2
S'success'
p3
I00
sS'settings'
p4
(lp5
I34
asS'normal'
p6
I00
sS'output'
p7
S'Denied\nPassword:'
p8
sS'date'
p9
cdatetime
datetime
p10
(S'\x07\xe1\x08\x19\r\x13\x0f\x00\xde\xad'
p11
tp12
Rp13
sS'input'
p14
S''
p15
ss.(dp0
S'data'
p1
(dp2
S'success'
p3
I00
sS'settings'
p4
(lp5
I35
asS'normal'
p6
I00
sS'output'
p7
S'Denied\nPassword:'
p8
sS'date'
p9
cdatetime
datetime
p10
(S'\x07\xe1\x08\x19\r\x13\x0f\x07B\xe5'
p11
tp12
Rp13
sS'input'
p14
S''
p15
ss.(dp0
S'data'
p1
(dp2
S'success'
p3
I00
sS'settings'
p4
(lp5
I36
asS'normal'
p6
I00
sS'output'
p7
S'Denied\nPassword:'
p8
sS'date'
p9
cdatetime
datetime
p10
(S'\x07\xe1\x08\x19\r\x13\x0f\r\x9c\xe5'
p11
tp12
Rp13
sS'input'
p14
S''
p15
ss.(dp0
S'data'
p1
(dp2
S'success'
p3
I00
sS'settings'
p4
(lp5
I37
asS'normal'
p6
I00
sS'output'
p7
S'Denied\nPassword:'
p8
sS'date'
p9
cdatetime
datetime
p10
(S'\x07\xe1\x08\x19\r\x13\x10\x04\xb7\x93'
p11
tp12
Rp13
sS'input'
p14
S''
p15
ss.(dp0
S'data'
p1
(dp2
S'success'
p3
I00
sS'settings'
p4
(lp5
I38
asS'normal'
p6
I00
sS'output'
p7
S'Denied\nPassword:'
p8
sS'date'
p9
cdatetime
datetime
p10
(S'\x07\xe1\x08\x19\r\x13\x10\x0b\x0f='
p11
tp12
Rp13
sS'input'
p14
S''
p15
ss.(dp0
S'data'
p1
(dp2
S'success'
p3
I00
sS'settings'
p4
(lp5
I39
asS'normal'
p6
I00
sS'output'
p7
S'Denied\nPassword:'
p8
sS'date'
p9
cdatetime
datetime
p10
(S'\x07\xe1\x08\x19\r\x13\x11\x02fB'
p11
tp12
Rp13
sS'input'
p14
S''
p15
ss.(dp0
S'data'
p1
(dp2
S'success'
p3
I00
sS'settings'
p4
(lp5
I40
asS'normal'
p6
I00
sS'output'
p7
S'Denied\nPassword:'
p8
sS'date'
p9
cdatetime
datetime
p10
(S'\x07\xe1\x08\x19\r\x13\x11\x08\xaa\xf5'
p11
tp12
Rp13
sS'input'
p14
S''
p15
ss.(dp0
S'data'
p1
(dp2
S'success'
p3
I00
sS'settings'
p4
(lp5
I41
asS'normal'
p6
I00
sS'output'
p7
S'Denied\nPassword:'
p8
sS'date'
p9
cdatetime
datetime
p10
(S'\x07\xe1\x08\x19\r\x13\x11\x0e\xfcq'
p11
tp12
Rp13
sS'input'
p14
S''
p15
ss.(dp0
S'data'
p1
(dp2
S'success'
p3
I00
sS'settings'
p4
(lp5
I42
asS'normal'
p6
I00
sS'output'
p7
S'Denied\nPassword:'
p8
sS'date'
p9
cdatetime
datetime
p10
(S'\x07\xe1\x08\x19\r\x13\x12\x06\x1b\xc5'
p11
tp12
Rp13
sS'input'
p14
S''
p15
ss.(dp0
S'data'
p1
(dp2
S'success'
p3
I00
sS'settings'
p4
(lp5
I43
asS'normal'
p6
I00
sS'output'
p7
S'Denied\nPassword:'
p8
sS'date'
p9
cdatetime
datetime
p10
(S'\x07\xe1\x08\x19\r\x13\x12\x0c`\xc7'
p11
tp12
Rp13
sS'input'
p14
S''
p15
ss.(dp0
S'data'
p1
(dp2
S'success'
p3
I00
sS'settings'
p4
(lp5
I44
asS'normal'
p6
I00
sS'output'
p7
S'Denied\nPassword:'
p8
sS'date'
p9
cdatetime
datetime
p10
(S'\x07\xe1\x08\x19\r\x13\x13\x03q\x0f'
p11
tp12
Rp13
sS'input'
p14
S''
p15
ss.(dp0
S'data'
p1
(dp2
S'success'
p3
I00
sS'settings'
p4
(lp5
I45
asS'normal'
p6
I00
sS'output'
p7
S'Denied\nPassword:'
p8
sS'date'
p9
cdatetime
datetime
p10
(S'\x07\xe1\x08\x19\r\x13\x13\t\xc8d'
p11
tp12
Rp13
sS'input'
p14
S''
p15
ss.(dp0
S'data'
p1
(dp2
S'success'
p3
I00
sS'settings'
p4
(lp5
I46
asS'normal'
p6
I00
sS'output'
p7
S'Denied\nPassword:'
p8
sS'date'
p9
cdatetime
datetime
p10
(S'\x07\xe1\x08\x19\r\x13\x14\x01\x104'
p11
tp12
Rp13
sS'input'
p14
S''
p15
ss.(dp0
S'data'
p1
(dp2
S'success'
p3
I00
sS'settings'
p4
(lp5
I47
asS'normal'
p6
I00
sS'output'
p7
S'Denied\nPassword:'
p8
sS'date'
p9
cdatetime
datetime
p10
(S'\x07\xe1\x08\x19\r\x13\x14\x08\x99\xbf'
p11
tp12
Rp13
sS'input'
p14
S''
p15
ss.(dp0
S'data'
p1
(dp2
S'success'
p3
I00
sS'settings'
p4
(lp5
I48
asS'normal'
p6
I00
sS'output'
p7
S'Welcome\nPassword:'
p8
sS'date'
p9
cdatetime
datetime
p10
(S'\x07\xe1\x08\x19\r\x13\x14\x0e\xb6\xab'
p11
tp12
Rp13
sS'input'
p14
S''
p15
ss.(dp0
S'data'
p1
(dp2
S'success'
p3
I00
sS'settings'
p4
(lp5
I49
asS'normal'
p6
I00
sS'output'
p7
S'Denied\nPassword:'
p8
sS'date'
p9
cdatetime
datetime
p10
(S'\x07\xe1\x08\x19\r\x13\x15\x06\xa8\x0f'
p11
tp12
Rp13
sS'input'
p14
S''
p15
ss.(dp0
S'data'
p1
(dp2
S'success'
p3
I00
sS'settings'
p4
(lp5
I50
asS'normal'
p6
I00
sS'output'
p7
S'0123456789ABCDEF%lu %d %d %d\nPassword:'
p8
sS'date'
p9
cdatetime
datetime
p10
(S'\x07\xe1\x08\x19\r\x13\x15\x0e\xc0['
p11
tp12
Rp13
sS'input'
p14
S''
p15
ss.(dp0
S'data'
p1
(dp2
S'success'
p3
I00
sS'settings'
p4
(lp5
I51
asS'normal'
p6
I00
sS'output'
p7
S'Password:'
p8
sS'date'
p9
cdatetime
datetime
p10
(S'\x07\xe1\x08\x19\r\x13\x16\x06-\xdd'
p11
tp12
Rp13
sS'input'
p14
S''
p15
ss.(dp0
S'data'
p1
(dp2
S'success'
p3
I00
sS'settings'
p4
(lp5
I52
asS'normal'
p6
I00
sS'output'
p7
S'Welcome\nPassword:'
p8
sS'date'
p9
cdatetime
datetime
p10
(S'\x07\xe1\x08\x19\r\x13\x16\x0c\x98/'
p11
tp12
Rp13
sS'input'
p14
S''
p15
ss.