(dp0
S'notes'
p1
S''
p2
s.(dp0
S'commands'
p1
(lp2
V['Glitch Module', 'Ext Trigger Offset']
p3
as.(dp0
S'data'
p1
(dp2
S'success'
p3
I00
sS'settings'
p4
(lp5
I0
asS'normal'
p6
I00
sS'output'
p7
S'\x00\x00hello\nPassword:'
p8
sS'date'
p9
cdatetime
datetime
p10
(S'\x07\xe1\x08\x19\r\x084\x0ef\xf9'
p11
tp12
Rp13
sS'input'
p14
S''
p15
ss.(dp0
S'data'
p1
(dp2
S'success'
p3
I00
sS'settings'
p4
(lp5
I0
asS'normal'
p6
I00
sS'output'
p7
S'hello\nPassword:'
p8
sS'date'
p9
cdatetime
datetime
p10
(S'\x07\xe1\x08\x19\r\x087\x06G"'
p11
tp12
Rp13
sS'input'
p14
S''
p15
ss.(dp0
S'data'
p1
(dp2
S'success'
p3
I00
sS'settings'
p4
(lp5
I0
asS'normal'
p6
I00
sS'output'
p7
S'hello\nPassword:'
p8
sS'date'
p9
cdatetime
datetime
p10
(S'\x07\xe1\x08\x19\r\x089\rt\x03'
p11
tp12
Rp13
sS'input'
p14
S''
p15
ss.(dp0
S'data'
p1
(dp2
S'success'
p3
I00
sS'settings'
p4
(lp5
I0
asS'normal'
p6
I00
sS'output'
p7
S'hello\nPassword:'
p8
sS'date'
p9
cdatetime
datetime
p10
(S'\x07\xe1\x08\x19\r\t\x00\x05\xf2\xe8'
p11
tp12
Rp13
sS'input'
p14
S''
p15
ss.(dp0
S'data'
p1
(dp2
S'success'
p3
I00
sS'settings'
p4
(lp5
I0
asS'normal'
p6
I00
sS'output'
p7
S'hello\nPassword:'
p8
sS'date'
p9
cdatetime
datetime
p10
(S'\x07\xe1\x08\x19\r\t\x02\r\x99\xb2'
p11
tp12
Rp13
sS'input'
p14
S''
p15
ss.